(lp1
(iserver.dynamic_trips
Ride
p2
(dp3
S'dest'
p4
(F42.261459768126251
F-71.794885998293026
tp5
sS'start'
p6
(F42.261460999999997
F-71.794888
tp7
sS'route'
p8
(iserver.routes
Route
p9
(dp10
S'rte'
p11
(dp12
Voverview_polyline
p13
(dp14
Vpoints
p15
Vme}`G|leuL
p16
ssVbounds
p17
(dp18
Vnortheast
p19
(dp20
Vlat
p21
F42.261511800000001
sVlng
p22
F-71.794866200000001
ssVsouthwest
p23
(dp24
g21
F42.261511400000003
sg22
F-71.794868199999996
sssVlegs
p25
(lp26
(dp27
Vdistance
p28
(dp29
Vtext
p30
V1 ft
p31
sVvalue
p32
I0
ssVtraffic_speed_entry
p33
(lp34
sVstart_location
p35
(dp36
g21
F42.261511800000001
sg22
F-71.794868199999996
ssVsteps
p37
(lp38
(dp39
g28
(dp40
g30
V1 ft
p41
sg32
I0
ssVtravel_mode
p42
VBICYCLING
p43
sg35
(dp44
g21
F42.261511800000001
sg22
F-71.794868199999996
ssVpolyline
p45
(dp46
g15
Vme}`G|leuL
p47
ssVduration
p48
(dp49
g30
V1 min
p50
sg32
I0
ssVend_location
p51
(dp52
g21
F42.261511400000003
sg22
F-71.794866200000001
ssasg48
(dp53
g30
V1 min
p54
sg32
I0
ssg51
(dp55
g21
F42.261511400000003
sg22
F-71.794866200000001
ssassS'path'
p56
g14
sS'duration'
p57
I0
sS'distance'
p58
I0
sbsS'dist'
p59
F0.21429894874431063
sba(iserver.dynamic_trips
Ride
p60
(dp61
g4
(F42.091007770330769
F-71.437454277933256
tp62
sg6
(F42.089941000000003
F-71.439019999999999
tp63
sg8
(iserver.routes
Route
p64
(dp65
g11
(dp66
Voverview_polyline
p67
(dp68
Vpoints
p69
Vcu{_Gz|_sLEs@K@YD?CEi@uBTESQq@GMg@Fq@oB
p70
ssVbounds
p71
(dp72
Vnortheast
p73
(dp74
Vlat
p75
F42.091386399999998
sVlng
p76
F-71.437742900000003
ssVsouthwest
p77
(dp78
g75
F42.089937800000001
sg76
F-71.439019299999998
sssVlegs
p79
(lp80
(dp81
Vdistance
p82
(dp83
Vtext
p84
V0.2 mi
p85
sVvalue
p86
I246
ssVtraffic_speed_entry
p87
(lp88
sVstart_location
p89
(dp90
g75
F42.089937800000001
sg76
F-71.439019299999998
ssVsteps
p91
(lp92
(dp93
g82
(dp94
g84
V72 ft
p95
sg86
I22
ssVtravel_mode
p96
VBICYCLING
p97
sg89
(dp98
g75
F42.089937800000001
sg76
F-71.439019299999998
ssVpolyline
p99
(dp100
g69
Vcu{_Gz|_sLA[CW
p101
ssVduration
p102
(dp103
g84
V1 min
p104
sg86
I20
ssVend_location
p105
(dp106
g75
F42.089968499999998
sg76
F-71.438759300000001
ssa(dp107
g82
(dp108
g84
V135 ft
p109
sg86
I41
ssg96
VBICYCLING
p110
sg89
(dp111
g75
F42.089968499999998
sg76
F-71.438759300000001
ssg99
(dp112
g69
Viu{_Gf{_sLE@E?YD?CCi@
p113
ssg102
(dp114
g84
V1 min
p115
sg86
I57
ssg105
(dp116
g75
F42.090182499999997
sg76
F-71.438565499999996
ssa(dp117
g82
(dp118
g84
V220 ft
p119
sg86
I67
ssg96
VBICYCLING
p120
sg89
(dp121
g75
F42.090182499999997
sg76
F-71.438565499999996
ssg99
(dp122
g69
Vsv{_G`z_sLA?uBT
p123
ssg102
(dp124
g84
V1 min
p125
sg86
I12
ssg105
(dp126
g75
F42.0907774
sg76
F-71.438676200000003
ssa(dp127
g82
(dp128
g84
V128 ft
p129
sg86
I39
ssg96
VBICYCLING
p130
sg89
(dp131
g75
F42.0907774
sg76
F-71.438676200000003
ssg99
(dp132
g69
Vkz{_Gvz_sLESGUI[GM
p133
ssg102
(dp134
g84
V1 min
p135
sg86
I6
ssg105
(dp136
g75
F42.090936800000001
sg76
F-71.438258699999992
ssa(dp137
g82
(dp138
g84
V79 ft
p139
sg86
I24
ssg96
VBICYCLING
p140
sg89
(dp141
g75
F42.090936800000001
sg76
F-71.438258699999992
ssg99
(dp142
g69
Vk{{_Gbx_sLg@FA?
p143
ssg102
(dp144
g84
V1 min
p145
sg86
I4
ssg105
(dp146
g75
F42.091151099999998
sg76
F-71.438302699999994
ssa(dp147
g82
(dp148
g84
V174 ft
p149
sg86
I53
ssg96
VBICYCLING
p150
sg89
(dp151
g75
F42.091151099999998
sg76
F-71.438302699999994
ssg99
(dp152
g69
Vu|{_Gjx_sLo@oB
p153
ssg102
(dp154
g84
V1 min
p155
sg86
I7
ssg105
(dp156
g75
F42.091386399999998
sg76
F-71.437742900000003
ssasg102
(dp157
g84
V2 mins
p158
sg86
I106
ssg105
(dp159
g75
F42.091386399999998
sg76
F-71.437742900000003
ssassg56
g68
sg57
I106
sg58
I246
sbsg59
F175.44214196061193
sba(iserver.dynamic_trips
Ride
p160
(dp161
g4
(F42.081645858997312
F-71.395261822374152
tp162
sg6
(F42.083238000000001
F-71.396101999999999
tp163
sg8
(iserver.routes
Route
p164
(dp165
g11
(dp166
Voverview_polyline
p167
(dp168
Vpoints
p169
Vmkz_GzpwrLYi@UVj@vACPq@r@@n@Fr@Nv@FTNMbBaB^_@RWZ}@^_Eb@DXIh@QHs@DA
p170
ssVbounds
p171
(dp172
Vnortheast
p173
(dp174
Vlat
p175
F42.083556000000002
sVlng
p176
F-71.395235599999992
ssVsouthwest
p177
(dp178
g175
F42.081651899999997
sg176
F-71.397725800000003
sssVlegs
p179
(lp180
(dp181
Vdistance
p182
(dp183
Vtext
p184
V0.3 mi
p185
sVvalue
p186
I514
ssVtraffic_speed_entry
p187
(lp188
sVstart_location
p189
(dp190
g175
F42.083269899999998
sg176
F-71.396137600000003
ssVsteps
p191
(lp192
(dp193
g182
(dp194
g184
V75 ft
p195
sg186
I23
ssVtravel_mode
p196
VBICYCLING
p197
sg189
(dp198
g175
F42.083269899999998
sg176
F-71.396137600000003
ssVpolyline
p199
(dp200
g169
Vmkz_GzpwrLYi@
p201
ssVduration
p202
(dp203
g184
V1 min
p204
sg186
I20
ssVend_location
p205
(dp206
g175
F42.083400099999999
sg176
F-71.395926099999997
ssa(dp207
g182
(dp208
g184
V52 ft
p209
sg186
I16
ssg196
VBICYCLING
p210
sg189
(dp211
g175
F42.083400099999999
sg176
F-71.395926099999997
ssg199
(dp212
g169
Vglz_GpowrLUV
p213
ssg202
(dp214
g184
V1 min
p215
sg186
I14
ssg205
(dp216
g175
F42.083505199999998
sg176
F-71.396053400000014
ssa(dp217
g182
(dp218
g184
V282 ft
p219
sg186
I86
ssg196
VBICYCLING
p220
sg189
(dp221
g175
F42.083505199999998
sg176
F-71.396053400000014
ssg199
(dp222
g169
V}lz_GhpwrLf@lABH?HCFST]\u005c
p223
ssg202
(dp224
g184
V1 min
p225
sg186
I43
ssg205
(dp226
g175
F42.083556000000002
sg176
F-71.396839299999996
ssa(dp227
g182
(dp228
g184
V253 ft
p229
sg186
I77
ssg196
VBICYCLING
p230
sg189
(dp231
g175
F42.083556000000002
sg176
F-71.396839299999996
ssg199
(dp232
g169
Vgmz_GfuwrL@D?F?L?R@VDZHd@DPFT
p233
ssg202
(dp234
g184
V1 min
p235
sg186
I20
ssg205
(dp236
g175
F42.083385799999988
sg176
F-71.397725800000003
ssa(dp237
g182
(dp238
g184
V479 ft
p239
sg186
I146
ssg196
VBICYCLING
p240
sg189
(dp241
g175
F42.083385799999988
sg176
F-71.397725800000003
ssg199
(dp242
g169
Velz_GxzwrLNMnAoARQRQJMJMFIBIBGHWHS
p243
ssg202
(dp244
g184
V2 mins
p245
sg186
I102
ssg205
(dp246
g175
F42.082406400000004
sg176
F-71.396577800000003
ssa(dp247
g182
(dp248
g184
V266 ft
p249
sg186
I81
ssg196
VBICYCLING
p250
sg189
(dp251
g175
F42.082406400000004
sg176
F-71.396577800000003
ssg199
(dp252
g169
Vafz_GrswrLJgAJcA@QDa@
p253
ssg202
(dp254
g184
V1 min
p255
sg186
I48
ssg205
(dp256
g175
F42.082248100000001
sg176
F-71.395622899999992
ssa(dp257
g182
(dp258
g184
V194 ft
p259
sg186
I59
ssg196
VBICYCLING
p260
sg189
(dp261
g175
F42.082248100000001
sg176
F-71.395622899999992
ssg199
(dp262
g169
Vaez_GrmwrLXBH@HCNEJE\u005cK
p263
ssg202
(dp264
g184
V1 min
p265
sg186
I9
ssg205
(dp266
g175
F42.081734399999988
sg176
F-71.395508800000002
ssa(dp267
g182
(dp268
g184
V85 ft
p269
sg186
I26
ssg196
VBICYCLING
p270
sg189
(dp271
g175
F42.081734399999988
sg176
F-71.395508800000002
ssg199
(dp272
g169
Vyaz_G|lwrL?AHq@DA
p273
ssg202
(dp274
g184
V1 min
p275
sg186
I5
ssg205
(dp276
g175
F42.081651899999997
sg176
F-71.395235599999992
ssasg202
(dp277
g184
V4 mins
p278
sg186
I261
ssg205
(dp279
g175
F42.081651899999997
sg176
F-71.395235599999992
ssassg56
g168
sg57
I261
sg58
I514
sbsg59
F190.18535539086841
sba(iserver.dynamic_trips
Ride
p280
(dp281
g4
(F42.188870823703418
F-71.20197454981998
tp282
sg6
(F42.188775
F-71.199664999999996
tp283
sg8
(iserver.routes
Route
p284
(dp285
g11
(dp286
Voverview_polyline
p287
(dp288
Vpoints
p289
V}~n`GjeqqLlD`AARA\u005cCTBBFPT`C\u005clDI~C}@Gk@EAe@gBM]C
p290
ssVbounds
p291
(dp292
Vnortheast
p293
(dp294
Vlat
p295
F42.188902100000007
sVlng
p296
F-71.199741199999991
ssVsouthwest
p297
(dp298
g295
F42.1876368
sg296
F-71.202860700000002
sssVlegs
p299
(lp300
(dp301
Vdistance
p302
(dp303
Vtext
p304
V0.3 mi
p305
sVvalue
p306
I488
ssVtraffic_speed_entry
p307
(lp308
sVstart_location
p309
(dp310
g295
F42.188790699999998
sg296
F-71.199741199999991
ssVsteps
p311
(lp312
(dp313
g302
(dp314
g304
V331 ft
p315
sg306
I101
ssVtravel_mode
p316
VBICYCLING
p317
sg309
(dp318
g295
F42.188790699999998
sg296
F-71.199741199999991
ssVpolyline
p319
(dp320
g289
V}~n`GjeqqLlD`A
p321
ssVduration
p322
(dp323
g304
V2 mins
p324
sg306
I91
ssVend_location
p325
(dp326
g295
F42.187916000000001
sg296
F-71.200069499999998
ssa(dp327
g302
(dp328
g304
V39 ft
p329
sg306
I12
ssg316
VBICYCLING
p330
sg309
(dp331
g295
F42.187916000000001
sg296
F-71.200069499999998
ssg319
(dp332
g289
Voyn`GlgqqLARCD
p333
ssg322
(dp334
g304
V1 min
p335
sg306
I11
ssg325
(dp336
g295
F42.187949499999988
sg296
F-71.200201800000002
ssa(dp337
g302
(dp338
g304
V0.1 mi
p339
sg306
I225
ssg316
VBICYCLING
p340
sg309
(dp341
g295
F42.187949499999988
sg296
F-71.200201800000002
ssg319
(dp342
g289
Vuyn`GfhqqL@VCTBBBFBHBVBXLnAZpC@ZI~C
p343
ssg322
(dp344
g304
V1 min
p345
sg306
I58
ssg325
(dp346
g295
F42.187686199999987
sg296
F-71.202860700000002
ssa(dp347
g302
(dp348
g304
V197 ft
p349
sg306
I60
ssg316
VBICYCLING
p350
sg309
(dp351
g295
F42.187686199999987
sg296
F-71.202860700000002
ssg319
(dp352
g289
Vaxn`GzxqqL}@Gk@E
p353
ssg322
(dp354
g304
V1 min
p355
sg306
I36
ssg325
(dp356
g295
F42.188219799999999
sg296
F-71.2027894
ssa(dp357
g302
(dp358
g304
V49 ft
p359
sg306
I15
ssg316
VBICYCLING
p360
sg309
(dp361
g295
F42.188219799999999
sg296
F-71.2027894
ssg319
(dp362
g289
Vk{n`GlxqqLAe@
p363
ssg322
(dp364
g304
V1 min
p365
sg306
I2
ssg325
(dp366
g295
F42.188228600000002
sg296
F-71.202602099999993
ssa(dp367
g302
(dp368
g304
V246 ft
p369
sg306
I75
ssg316
VBICYCLING
p370
sg309
(dp371
g295
F42.188228600000002
sg296
F-71.202602099999993
ssg319
(dp372
g289
Vm{n`GfwqqLy@Im@C]C
p373
ssg322
(dp374
g304
V1 min
p375
sg306
I13
ssg325
(dp376
g295
F42.188902100000007
sg296
F-71.202510099999998
ssasg322
(dp377
g304
V4 mins
p378
sg306
I211
ssg325
(dp379
g295
F42.188902100000007
sg296
F-71.202510099999998
ssassg56
g288
sg57
I211
sg58
I488
sbsg59
F190.63162982081323
sba(iserver.dynamic_trips
Ride
p380
(dp381
g4
(F42.085234468198649
F-71.394910718176916
tp382
sg6
g163
sg8
(iserver.routes
Route
p383
(dp384
g11
(dp385
Voverview_polyline
p386
(dp387
Vpoints
p388
Vmkz_GzpwrLYi@UVj@vACPq@r@GIMC]F_AVCGaDoL
p389
ssVbounds
p390
(dp391
Vnortheast
p392
(dp393
Vlat
p394
F42.084969699999988
sVlng
p395
F-71.394728700000002
ssVsouthwest
p396
(dp397
g394
F42.083269899999998
sg395
F-71.396933199999992
sssVlegs
p398
(lp399
(dp400
Vdistance
p401
(dp402
Vtext
p403
V0.2 mi
p404
sVvalue
p405
I398
ssVtraffic_speed_entry
p406
(lp407
sVstart_location
p408
(dp409
g394
F42.083269899999998
sg395
F-71.396137600000003
ssVsteps
p410
(lp411
(dp412
g401
(dp413
g403
V75 ft
p414
sg405
I23
ssVtravel_mode
p415
VBICYCLING
p416
sg408
(dp417
g394
F42.083269899999998
sg395
F-71.396137600000003
ssVpolyline
p418
(dp419
g388
Vmkz_GzpwrLYi@
p420
ssVduration
p421
(dp422
g403
V1 min
p423
sg405
I20
ssVend_location
p424
(dp425
g394
F42.083400099999999
sg395
F-71.395926099999997
ssa(dp426
g401
(dp427
g403
V52 ft
p428
sg405
I16
ssg415
VBICYCLING
p429
sg408
(dp430
g394
F42.083400099999999
sg395
F-71.395926099999997
ssg418
(dp431
g388
Vglz_GpowrLUV
p432
ssg421
(dp433
g403
V1 min
p434
sg405
I14
ssg424
(dp435
g394
F42.083505199999998
sg395
F-71.396053400000014
ssa(dp436
g401
(dp437
g403
V282 ft
p438
sg405
I86
ssg415
VBICYCLING
p439
sg408
(dp440
g394
F42.083505199999998
sg395
F-71.396053400000014
ssg418
(dp441
g388
V}lz_GhpwrLf@lABH?HCFST]\u005c
p442
ssg421
(dp443
g403
V1 min
p444
sg405
I43
ssg424
(dp445
g394
F42.083556000000002
sg395
F-71.396839299999996
ssa(dp446
g401
(dp447
g403
V226 ft
p448
sg405
I69
ssg415
VBICYCLING
p449
sg408
(dp450
g394
F42.083556000000002
sg395
F-71.396839299999996
ssg418
(dp451
g388
Vgmz_GfuwrLCECCGCE?E?G?IDE@_AV
p452
ssg421
(dp453
g403
V1 min
p454
sg405
I16
ssg424
(dp455
g394
F42.084140300000001
sg395
F-71.396933199999992
ssa(dp456
g401
(dp457
g403
V0.1 mi
p458
sg405
I204
ssg415
VBICYCLING
p459
sg408
(dp460
g394
F42.084140300000001
sg395
F-71.396933199999992
ssg418
(dp461
g388
V{pz_GxuwrLCGu@uCkByG
p462
ssg421
(dp463
g403
V1 min
p464
sg405
I33
ssg424
(dp465
g394
F42.084969699999988
sg395
F-71.394728700000002
ssasg421
(dp466
g403
V2 mins
p467
sg405
I126
ssg424
(dp468
g394
F42.084969699999988
sg395
F-71.394728700000002
ssassg56
g387
sg57
I126
sg58
I398
sbsg59
F242.85959413873655
sba(iserver.dynamic_trips
Ride
p469
(dp470
g4
(F42.351595172917442
F-71.051833391270264
tp471
sg6
(F42.351763089999999
F-71.05479665
tp472
sg8
(iserver.routes
Route
p473
(dp474
g11
(dp475
Voverview_polyline
p476
(dp477
Vpoints
p478
VeznaG~xtpLP]e@c@DIlBaFQEqAu@aAm@]W^y@b@wA
p479
ssVbounds
p480
(dp481
Vnortheast
p482
(dp483
Vlat
p484
F42.352366300000007
sVlng
p485
F-71.051509199999998
ssVsouthwest
p486
(dp487
g484
F42.351388499999999
sg485
F-71.054404599999998
sssVlegs
p488
(lp489
(dp490
Vdistance
p491
(dp492
Vtext
p493
V0.2 mi
p494
sVvalue
p495
I351
ssVtraffic_speed_entry
p496
(lp497
sVstart_location
p498
(dp499
g484
F42.351870699999999
sg485
F-71.054404599999998
ssVsteps
p500
(lp501
(dp502
g491
(dp503
g493
V138 ft
p504
sg495
I42
ssVtravel_mode
p505
VBICYCLING
p506
sg498
(dp507
g484
F42.351870699999999
sg485
F-71.054404599999998
ssVpolyline
p508
(dp509
g478
VeznaG~xtpLBCLYe@c@
p510
ssVduration
p511
(dp512
g493
V1 min
p513
sg495
I8
ssVend_location
p514
(dp515
g484
F42.351965499999999
sg485
F-71.054065899999998
ssa(dp516
g491
(dp517
g493
V381 ft
p518
sg495
I116
ssg505
VBICYCLING
p519
sg498
(dp520
g484
F42.351965499999999
sg485
F-71.054065899999998
ssg508
(dp521
g478
VyznaG|vtpLDI~AcEL]
p522
ssg511
(dp523
g493
V1 min
p524
sg495
I47
ssg514
(dp525
g484
F42.351388499999999
sg485
F-71.052886700000002
ssa(dp526
g491
(dp527
g493
V400 ft
p528
sg495
I122
ssg505
VBICYCLING
p529
sg498
(dp530
g484
F42.351388499999999
sg485
F-71.052886700000002
ssg508
(dp531
g478
VewnaGpotpLQEqAu@aAm@]W
p532
ssg511
(dp533
g493
V1 min
p534
sg495
I43
ssg514
(dp535
g484
F42.352366300000007
sg485
F-71.052238799999998
ssa(dp536
g491
(dp537
g493
V233 ft
p538
sg495
I71
ssg505
VBICYCLING
p539
sg498
(dp540
g484
F42.352366300000007
sg485
F-71.052238799999998
ssg508
(dp541
g478
Vi}naGnktpLVc@FUb@wA
p542
ssg511
(dp543
g493
V1 min
p544
sg495
I42
ssg514
(dp545
g484
F42.352026700000003
sg485
F-71.051509199999998
ssasg511
(dp546
g493
V2 mins
p547
sg495
I140
ssg514
(dp548
g484
F42.352026700000003
sg485
F-71.051509199999998
ssassg56
g477
sg57
I140
sg58
I351
sbsg59
F244.29143864705281
sba(iserver.dynamic_trips
Ride
p549
(dp550
g4
(F42.34938000036837
F-71.054413224967746
tp551
sg6
g472
sg8
(iserver.routes
Route
p552
(dp553
g11
(dp554
Voverview_polyline
p555
(dp556
Vpoints
p557
VeznaG~xtpLP]e@c@DIlBaFQEu@fBoBdFu@`C]lAMl@G`@@NGRITDLHXFVhA~FNXFb@Xp@^l@^d@l@j@l@^tE|Ad@LBOZoBFe@jA^d@Nj@Zr@VRFPFJ{@v@yH@_@C]I]O_@SWYWOUK]UeBIYSY}@i@k@U
p558
ssVbounds
p559
(dp560
Vnortheast
p561
(dp562
Vlat
p563
F42.352920699999999
sVlng
p564
F-71.052860299999992
ssVsouthwest
p565
(dp566
g563
F42.348351600000001
sg564
F-71.05976179999999
sssVlegs
p567
(lp568
(dp569
Vdistance
p570
(dp571
Vtext
p572
V1.0 mi
p573
sVvalue
p574
I1573
ssVtraffic_speed_entry
p575
(lp576
sVstart_location
p577
(dp578
g563
F42.351870699999999
sg564
F-71.054404599999998
ssVsteps
p579
(lp580
(dp581
g570
(dp582
g572
V138 ft
p583
sg574
I42
ssVtravel_mode
p584
VBICYCLING
p585
sg577
(dp586
g563
F42.351870699999999
sg564
F-71.054404599999998
ssVpolyline
p587
(dp588
g557
VeznaG~xtpLBCLYe@c@
p589
ssVduration
p590
(dp591
g572
V1 min
p592
sg574
I8
ssVend_location
p593
(dp594
g563
F42.351965499999999
sg564
F-71.054065899999998
ssa(dp595
g570
(dp596
g572
V381 ft
p597
sg574
I116
ssg584
VBICYCLING
p598
sg577
(dp599
g563
F42.351965499999999
sg564
F-71.054065899999998
ssg587
(dp600
g557
VyznaG|vtpLDI~AcEL]
p601
ssg590
(dp602
g572
V1 min
p603
sg574
I47
ssg593
(dp604
g563
F42.351388499999999
sg564
F-71.052886700000002
ssa(dp605
g570
(dp606
g572
V0.2 mi
p607
sg574
I335
ssg584
VBICYCLING
p608
sg577
(dp609
g563
F42.351388499999999
sg564
F-71.052886700000002
ssg587
(dp610
g557
VewnaGpotpLQEu@fB{AzDSh@]jAWt@Qh@Kb@Kf@ADEP?DAB?D@NGRIT
p611
ssg590
(dp612
g572
V2 mins
p613
sg574
I113
ssg593
(dp614
g563
F42.352920699999999
sg564
F-71.056255100000001
ssa(dp615
g570
(dp616
g572
V0.3 mi
p617
sg574
I454
ssg584
VBICYCLING
p618
sg577
(dp619
g563
F42.352920699999999
sg564
F-71.056255100000001
ssg587
(dp620
g557
Vw`oaGrdupLDLDLBJDJ@JDLX~A^rBH\u005cFPFFBRBNDLFLFJBH@BFJJPHJ@@FJJLHHJJJJJHHHLHHFJFHDJD^NNDxC`Ad@L
p621
ssg590
(dp622
g572
V2 mins
p623
sg574
I129
ssg593
(dp624
g563
F42.350139200000001
sg564
F-71.05976179999999
ssa(dp625
g570
(dp626
g572
V233 ft
p627
sg574
I71
ssg584
VBICYCLING
p628
sg577
(dp629
g563
F42.350139200000001
sg564
F-71.05976179999999
ssg587
(dp630
g557
VkonaGnzupLBOBMVaBFe@
p631
ssg590
(dp632
g572
V1 min
p633
sg574
I39
ssg593
(dp634
g563
F42.349942400000003
sg564
F-71.058934600000001
ssa(dp635
g570
(dp636
g572
V479 ft
p637
sg574
I146
ssg584
VBICYCLING
p638
sg577
(dp639
g563
F42.349942400000003
sg564
F-71.058934600000001
ssg587
(dp640
g557
VcnnaGhuupLjA^d@Nj@Zh@PHDHBHBFBHB
p641
ssg590
(dp642
g572
V1 min
p643
sg574
I61
ssg593
(dp644
g563
F42.3487005
sg564
F-71.059511299999997
ssa(dp645
g570
(dp646
g572
V0.3 mi
p647
sg574
I409
ssg584
VBICYCLING
p648
sg577
(dp649
g563
F42.3487005
sg564
F-71.059511299999997
ssg587
(dp650
g557
VkfnaG|xupLBWFc@p@sGBM@K?K@G?I?E?G?GAG?GAEAGAGAECGCIAEEICECEEGCCEEGKECECECCCCEEEAECECGAGAGAIAGOmAAEAGAEAECECECEEGEEECGEi@YEEGCICYM
p651
ssg590
(dp652
g572
V2 mins
p653
sg574
I126
ssg593
(dp654
g563
F42.349658699999999
sg564
F-71.0554329
ssasg590
(dp655
g572
V9 mins
p656
sg574
I523
ssg593
(dp657
g563
F42.349658699999999
sg564
F-71.0554329
ssassg56
g556
sg57
I523
sg58
I1573
sbsg59
F266.92938784907727
sba(iserver.dynamic_trips
Ride
p658
(dp659
g4
(F42.146639311316569
F-71.260833628715943
tp660
sg6
(F42.145477
F-71.25779
tp661
sg8
(iserver.routes
Route
p662
(dp663
g11
(dp664
Voverview_polyline
p665
(dp666
Vpoints
p667
Vepf`Gbp|qLaBkDGWCQcAaCGOy@|@m@h@uAz@{Az@y@j@uAlA{@bA}@vAu@~AQh@m@nBe@|BhChAvCnAh@d@
p668
ssVbounds
p669
(dp670
Vnortheast
p671
(dp672
Vlat
p673
F42.1499247
sVlng
p674
F-71.255983700000002
ssVsouthwest
p675
(dp676
g673
F42.145468399999999
sg674
F-71.2613269
sssVlegs
p677
(lp678
(dp679
Vdistance
p680
(dp681
Vtext
p682
V0.6 mi
p683
sVvalue
p684
I933
ssVtraffic_speed_entry
p685
(lp686
sVstart_location
p687
(dp688
g673
F42.145468399999999
sg674
F-71.257780999999994
ssVsteps
p689
(lp690
(dp691
g680
(dp692
g682
V0.1 mi
p693
sg684
I181
ssVtravel_mode
p694
VBICYCLING
p695
sg687
(dp696
g673
F42.145468399999999
sg674
F-71.257780999999994
ssVpolyline
p697
(dp698
g667
Vepf`Gbp|qLaBkDGWCQcAaCGO
p699
ssVduration
p700
(dp701
g682
V1 min
p702
sg684
I25
ssVend_location
p703
(dp704
g673
F42.1464
sg674
F-71.255983700000002
ssa(dp705
g680
(dp706
g682
V0.3 mi
p707
sg684
I550
ssg694
VBICYCLING
p708
sg687
(dp709
g673
F42.1464
sg674
F-71.255983700000002
ssg697
(dp710
g667
V_vf`Gzd|qLy@|@SRYTo@b@e@V}@f@]Rc@XUPq@h@c@b@WVc@j@]h@_@l@_@v@Uf@GRITMZSn@CHGXENCJOt@Kj@
p711
ssg700
(dp712
g682
V4 mins
p713
sg684
I222
ssg703
(dp714
g673
F42.1499247
sg674
F-71.260371399999997
ssa(dp715
g680
(dp716
g682
V0.1 mi
p717
sg684
I202
ssg694
VBICYCLING
p718
sg687
(dp719
g673
F42.1499247
sg674
F-71.260371399999997
ssg697
(dp720
g667
V_lg`Gh`}qLhAj@~@\u005cpAl@dA`@h@d@
p721
ssg700
(dp722
g682
V1 min
p723
sg684
I67
ssg703
(dp724
g673
F42.148256500000002
sg674
F-71.2613269
ssasg700
(dp725
g682
V5 mins
p726
sg684
I314
ssg703
(dp727
g673
F42.148256500000002
sg674
F-71.2613269
ssassg56
g666
sg57
I314
sg58
I933
sbsg59
F282.33668403240767
sba(iserver.dynamic_trips
Ride
p728
(dp729
g4
(F42.259960555680316
F-71.792118478630712
tp730
sg6
g7
sg8
(iserver.routes
Route
p731
(dp732
g11
(dp733
Voverview_polyline
p734
(dp735
Vpoints
p736
Vme}`G|leuLHo@@YCSKSR]HIj@[^Oz@SpAKM}AAwDfA??i@
p737
ssVbounds
p738
(dp739
Vnortheast
p740
(dp741
Vlat
p742
F42.2615251
sVlng
p743
F-71.7921178
ssVsouthwest
p744
(dp745
g742
F42.260009799999999
sg743
F-71.794868199999996
sssVlegs
p746
(lp747
(dp748
Vdistance
p749
(dp750
Vtext
p751
V0.2 mi
p752
sVvalue
p753
I373
ssVtraffic_speed_entry
p754
(lp755
sVstart_location
p756
(dp757
g742
F42.261511800000001
sg743
F-71.794868199999996
ssVsteps
p758
(lp759
(dp760
g749
(dp761
g751
V164 ft
p762
sg753
I50
ssVtravel_mode
p763
VBICYCLING
p764
sg756
(dp765
g742
F42.261511800000001
sg743
F-71.794868199999996
ssVpolyline
p766
(dp767
g736
Vme}`G|leuLD]BQ@M?KAKAGEKEG
p768
ssVduration
p769
(dp770
g751
V1 min
p771
sg753
I13
ssVend_location
p772
(dp773
g742
F42.2615251
sg743
F-71.794296599999996
ssa(dp774
g749
(dp775
g751
V489 ft
p776
sg753
I149
ssg763
VBICYCLING
p777
sg756
(dp778
g742
F42.2615251
sg743
F-71.794296599999996
ssg766
(dp779
g736
Vqe}`GjieuLN[BABADGf@YBAFEVIx@Q@ATCz@G
p780
ssg769
(dp781
g751
V1 min
p782
sg753
I53
ssg772
(dp783
g742
F42.260291100000003
sg743
F-71.793722299999999
ssa(dp784
g749
(dp785
g751
V381 ft
p786
sg753
I116
ssg763
VBICYCLING
p787
sg756
(dp788
g742
F42.260291100000003
sg743
F-71.793722299999999
ssg766
(dp789
g736
Vy}|`GveeuLGi@CW?GASAQ?c@?[?eB
p790
ssg769
(dp791
g751
V1 min
p792
sg753
I51
ssg772
(dp793
g742
F42.260366500000003
sg743
F-71.792325099999999
ssa(dp794
g749
(dp795
g751
V131 ft
p796
sg753
I40
ssg763
VBICYCLING
p797
sg756
(dp798
g742
F42.260366500000003
sg743
F-71.792325099999999
ssg766
(dp799
g736
Vi~|`G`}duLfA?
p800
ssg769
(dp801
g751
V1 min
p802
sg753
I5
ssg772
(dp803
g742
F42.260010299999998
sg743
F-71.792332999999999
ssa(dp804
g749
(dp805
g751
V59 ft
p806
sg753
I18
ssg763
VBICYCLING
p807
sg756
(dp808
g742
F42.260010299999998
sg743
F-71.792332999999999
ssg766
(dp809
g736
Va||`G`}duL?i@
p810
ssg769
(dp811
g751
V1 min
p812
sg753
I3
ssg772
(dp813
g742
F42.260009799999999
sg743
F-71.7921178
ssasg769
(dp814
g751
V2 mins
p815
sg753
I125
ssg772
(dp816
g742
F42.260009799999999
sg743
F-71.7921178
ssassg56
g735
sg57
I125
sg58
I373
sbsg59
F282.53681353159635
sba(iserver.dynamic_trips
Ride
p817
(dp818
g4
(F42.185271589956088
F-71.1983430863623
tp819
sg6
g283
sg8
(iserver.routes
Route
p820
(dp821
g11
(dp822
Voverview_polyline
p823
(dp824
Vpoints
p825
Vw~n`GpdqqL`EfAF_@b@LjBf@hAgHt@DtAPtA`@\u005cwB
p826
ssVbounds
p827
(dp828
Vnortheast
p829
(dp830
Vlat
p831
F42.188763899999998
sVlng
p832
F-71.198293699999994
ssVsouthwest
p833
(dp834
g831
F42.185376300000001
sg832
F-71.200080499999999
sssVlegs
p835
(lp836
(dp837
Vdistance
p838
(dp839
Vtext
p840
V0.3 mi
p841
sVvalue
p842
I519
ssVtraffic_speed_entry
p843
(lp844
sVstart_location
p845
(dp846
g831
F42.188763899999998
sg832
F-71.199610499999991
ssVsteps
p847
(lp848
(dp849
g838
(dp850
g840
V367 ft
p851
sg842
I112
ssVtravel_mode
p852
VBICYCLING
p853
sg845
(dp854
g831
F42.188763899999998
sg832
F-71.199610499999991
ssVpolyline
p855
(dp856
g825
Vw~n`GpdqqL`EfA
p857
ssVduration
p858
(dp859
g840
V2 mins
p860
sg842
I102
ssVend_location
p861
(dp862
g831
F42.187792100000003
sg832
F-71.199970699999994
ssa(dp863
g838
(dp864
g840
V46 ft
p865
sg842
I14
ssg852
VBICYCLING
p866
sg845
(dp867
g831
F42.187792100000003
sg832
F-71.199970699999994
ssg855
(dp868
g825
Vuxn`GxfqqLF_@
p869
ssg858
(dp870
g840
V1 min
p871
sg842
I13
ssg861
(dp872
g831
F42.187750399999999
sg832
F-71.199805299999994
ssa(dp873
g838
(dp874
g840
V236 ft
p875
sg842
I72
ssg852
VBICYCLING
p876
sg845
(dp877
g831
F42.187750399999999
sg832
F-71.199805299999994
ssg855
(dp878
g825
Vmxn`GxeqqLF@ZJZH^JZH
p879
ssg858
(dp880
g840
V1 min
p881
sg842
I27
ssg861
(dp882
g831
F42.187127099999998
sg832
F-71.20004209999999
ssa(dp883
g838
(dp884
g840
V463 ft
p885
sg842
I141
ssg852
VBICYCLING
p886
sg845
(dp887
g831
F42.187127099999998
sg832
F-71.20004209999999
ssg855
(dp888
g825
Vqtn`GfgqqLRFr@kET{A?A
p889
ssg858
(dp890
g840
V1 min
p891
sg842
I24
ssg861
(dp892
g831
F42.186657199999999
sg832
F-71.198586800000001
ssa(dp893
g838
(dp894
g840
V420 ft
p895
sg842
I128
ssg852
VBICYCLING
p896
sg845
(dp897
g831
F42.186657199999999
sg832
F-71.198586800000001
ssg855
(dp898
g825
Vsqn`Gd~pqLt@FtAPtA`@
p899
ssg858
(dp900
g840
V1 min
p901
sg842
I19
ssg861
(dp902
g831
F42.18553
sg832
F-71.198886399999992
ssa(dp903
g838
(dp904
g840
V171 ft
p905
sg842
I52
ssg852
VBICYCLING
p906
sg845
(dp907
g831
F42.18553
sg832
F-71.198886399999992
ssg855
(dp908
g825
Vqjn`G``qqL\u005cwB
p909
ssg858
(dp910
g840
V1 min
p911
sg842
I8
ssg861
(dp912
g831
F42.185376300000001
sg832
F-71.198293699999994
ssasg858
(dp913
g840
V3 mins
p914
sg842
I193
ssg861
(dp915
g831
F42.185376300000001
sg832
F-71.198293699999994
ssassg56
g824
sg57
I193
sg58
I519
sbsg59
F404.613913757104
sba(iserver.dynamic_trips
Ride
p916
(dp917
g4
(F42.085899172154072
F-71.392279912090842
tp918
sg6
g163
sg8
(iserver.routes
Route
p919
(dp920
g11
(dp921
Voverview_polyline
p922
(dp923
Vpoints
p924
Vmkz_GzpwrLYi@UVj@vACPq@r@GIMC]F_AVCGkFsRe@oA[e@[Ya@Q
p925
ssVbounds
p926
(dp927
Vnortheast
p928
(dp929
Vlat
p930
F42.085978300000001
sVlng
p931
F-71.392940600000003
ssVsouthwest
p932
(dp933
g930
F42.083269899999998
sg931
F-71.396933199999992
sssVlegs
p934
(lp935
(dp936
Vdistance
p937
(dp938
Vtext
p939
V0.4 mi
p940
sVvalue
p941
I589
ssVtraffic_speed_entry
p942
(lp943
sVstart_location
p944
(dp945
g930
F42.083269899999998
sg931
F-71.396137600000003
ssVsteps
p946
(lp947
(dp948
g937
(dp949
g939
V75 ft
p950
sg941
I23
ssVtravel_mode
p951
VBICYCLING
p952
sg944
(dp953
g930
F42.083269899999998
sg931
F-71.396137600000003
ssVpolyline
p954
(dp955
g924
Vmkz_GzpwrLYi@
p956
ssVduration
p957
(dp958
g939
V1 min
p959
sg941
I20
ssVend_location
p960
(dp961
g930
F42.083400099999999
sg931
F-71.395926099999997
ssa(dp962
g937
(dp963
g939
V52 ft
p964
sg941
I16
ssg951
VBICYCLING
p965
sg944
(dp966
g930
F42.083400099999999
sg931
F-71.395926099999997
ssg954
(dp967
g924
Vglz_GpowrLUV
p968
ssg957
(dp969
g939
V1 min
p970
sg941
I14
ssg960
(dp971
g930
F42.083505199999998
sg931
F-71.396053400000014
ssa(dp972
g937
(dp973
g939
V282 ft
p974
sg941
I86
ssg951
VBICYCLING
p975
sg944
(dp976
g930
F42.083505199999998
sg931
F-71.396053400000014
ssg954
(dp977
g924
V}lz_GhpwrLf@lABH?HCFST]\u005c
p978
ssg957
(dp979
g939
V1 min
p980
sg941
I43
ssg960
(dp981
g930
F42.083556000000002
sg931
F-71.396839299999996
ssa(dp982
g937
(dp983
g939
V226 ft
p984
sg941
I69
ssg951
VBICYCLING
p985
sg944
(dp986
g930
F42.083556000000002
sg931
F-71.396839299999996
ssg954
(dp987
g924
Vgmz_GfuwrLCECCGCE?E?G?IDE@_AV
p988
ssg957
(dp989
g939
V1 min
p990
sg941
I16
ssg960
(dp991
g930
F42.084140300000001
sg931
F-71.396933199999992
ssa(dp992
g937
(dp993
g939
V0.2 mi
p994
sg941
I395
ssg951
VBICYCLING
p995
sg944
(dp996
g930
F42.084140300000001
sg931
F-71.396933199999992
ssg954
(dp997
g924
V{pz_GxuwrLCGu@uCuD}Me@oA[e@MOMIOIKEEA
p998
ssg957
(dp999
g939
V1 min
p1000
sg941
I67
ssg960
(dp1001
g930
F42.085978300000001
sg931
F-71.392940600000003
ssasg957
(dp1002
g939
V3 mins
p1003
sg941
I160
ssg960
(dp1004
g930
F42.085978300000001
sg931
F-71.392940600000003
ssassg56
g923
sg57
I160
sg58
I589
sbsg59
F432.61240895693629
sba(iserver.dynamic_trips
Ride
p1005
(dp1006
g4
(F41.585448226086854
F-71.491822601837072
tp1007
sg6
(F41.581288999999998
F-71.491146999999998
tp1008
sg8
(iserver.routes
Route
p1009
(dp1010
g11
(dp1011
Voverview_polyline
p1012
(dp1013
Vpoints
p1014
Vghx|FlfjsLi@zASKW@a@PkBjBq@n@MB_@@UESDON[NSF]Ew@Ui@i@Uo@Wg@S_@eFc@Bw@
p1015
ssVbounds
p1016
(dp1017
Vnortheast
p1018
(dp1019
Vlat
p1020
F41.585271599999999
sVlng
p1021
F-71.491751999999991
ssVsouthwest
p1022
(dp1023
g1020
F41.580998600000008
sg1021
F-71.493256000000002
sssVlegs
p1024
(lp1025
(dp1026
Vdistance
p1027
(dp1028
Vtext
p1029
V0.4 mi
p1030
sVvalue
p1031
I582
ssVtraffic_speed_entry
p1032
(lp1033
sVstart_location
p1034
(dp1035
g1020
F41.580998600000008
sg1021
F-71.491751999999991
ssVsteps
p1036
(lp1037
(dp1038
g1027
(dp1039
g1029
V148 ft
p1040
sg1031
I45
ssVtravel_mode
p1041
VBICYCLING
p1042
sg1034
(dp1043
g1020
F41.580998600000008
sg1021
F-71.491751999999991
ssVpolyline
p1044
(dp1045
g1014
Vghx|FlfjsLGHa@pA
p1046
ssVduration
p1047
(dp1048
g1029
V1 min
p1049
sg1031
I21
ssVend_location
p1050
(dp1051
g1020
F41.581212299999997
sg1021
F-71.492211999999995
ssa(dp1052
g1027
(dp1053
g1029
V39 ft
p1054
sg1031
I12
ssg1041
VBICYCLING
p1055
sg1034
(dp1056
g1020
F41.581212299999997
sg1021
F-71.492211999999995
ssg1044
(dp1057
g1014
Vqix|FhijsLSK
p1058
ssg1047
(dp1059
g1029
V1 min
p1060
sg1031
I3
ssg1050
(dp1061
g1020
F41.581309500000003
sg1021
F-71.492154499999998
ssa(dp1062
g1027
(dp1063
g1029
V0.1 mi
p1064
sg1031
I169
ssg1041
VBICYCLING
p1065
sg1034
(dp1066
g1020
F41.581309500000003
sg1021
F-71.492154499999998
ssg1044
(dp1067
g1014
Vejx|F|hjsLW@IBWLOP{AxAq@n@MBM@Q?
p1068
ssg1047
(dp1069
g1029
V1 min
p1070
sg1031
I38
ssg1050
(dp1071
g1020
F41.582622299999997
sg1021
F-71.493059299999999
ssa(dp1072
g1027
(dp1073
g1029
V0.1 mi
p1074
sg1031
I204
ssg1041
VBICYCLING
p1075
sg1034
(dp1076
g1020
F41.582622299999997
sg1021
F-71.493059299999999
ssg1044
(dp1077
g1014
Vkrx|FrnjsLGCCAC?E?E?C@C@E@CBCBCBCBKFOFSF]Ec@KSIUUSSKUIYGQOUS_@
p1078
ssg1047
(dp1079
g1029
V1 min
p1080
sg1031
I74
ssg1050
(dp1081
g1020
F41.584120600000013
sg1021
F-71.492307799999992
ssa(dp1082
g1027
(dp1083
g1029
V499 ft
p1084
sg1031
I152
ssg1041
VBICYCLING
p1085
sg1034
(dp1086
g1020
F41.584120600000013
sg1021
F-71.492307799999992
ssg1044
(dp1087
g1014
Vw{x|F|ijsLeFc@Bw@
p1088
ssg1047
(dp1089
g1029
V1 min
p1090
sg1031
I29
ssg1050
(dp1091
g1020
F41.585251
sg1021
F-71.4918488
ssasg1047
(dp1092
g1029
V3 mins
p1093
sg1031
I165
ssg1050
(dp1094
g1020
F41.585251
sg1021
F-71.4918488
ssassg56
g1013
sg57
I165
sg58
I582
sbsg59
F466.0172259208851
sba(iserver.dynamic_trips
Ride
p1095
(dp1096
g4
(F41.581274989433837
F-71.497180587102889
tp1097
sg6
g1008
sg8
(iserver.routes
Route
p1098
(dp1099
g11
(dp1100
Voverview_polyline
p1101
(dp1102
Vpoints
p1103
Vghx|FlfjsLi@zAPRZNRLJJDPGl@MHkB~Ak@|@_AfBmAtCo@fB[`A[tAMt@Ad@K`AC\u005cPFz@\u005c`CxA\u005ch@RHb@BTEZWp@{B
p1104
ssVbounds
p1105
(dp1106
Vnortheast
p1107
(dp1108
Vlat
p1109
F41.583048400000003
sVlng
p1110
F-71.491751999999991
ssVsouthwest
p1111
(dp1112
g1109
F41.580785800000001
sg1110
F-71.498092999999997
sssVlegs
p1113
(lp1114
(dp1115
Vdistance
p1116
(dp1117
Vtext
p1118
V0.5 mi
p1119
sVvalue
p1120
I849
ssVtraffic_speed_entry
p1121
(lp1122
sVstart_location
p1123
(dp1124
g1109
F41.580998600000008
sg1110
F-71.491751999999991
ssVsteps
p1125
(lp1126
(dp1127
g1116
(dp1128
g1118
V148 ft
p1129
sg1120
I45
ssVtravel_mode
p1130
VBICYCLING
p1131
sg1123
(dp1132
g1109
F41.580998600000008
sg1110
F-71.491751999999991
ssVpolyline
p1133
(dp1134
g1103
Vghx|FlfjsLGHa@pA
p1135
ssVduration
p1136
(dp1137
g1118
V1 min
p1138
sg1120
I21
ssVend_location
p1139
(dp1140
g1109
F41.581212299999997
sg1110
F-71.492211999999995
ssa(dp1141
g1116
(dp1142
g1118
V259 ft
p1143
sg1120
I79
ssg1130
VBICYCLING
p1144
sg1123
(dp1145
g1109
F41.581212299999997
sg1110
F-71.492211999999995
ssg1133
(dp1146
g1103
Vqix|FhijsLPRZNB@NJJJDP?RGX
p1147
ssg1136
(dp1148
g1118
V1 min
p1149
sg1120
I16
ssg1139
(dp1150
g1109
F41.580827000000014
sg1110
F-71.492837800000004
ssa(dp1151
g1116
(dp1152
g1118
V0.3 mi
p1153
sg1120
I451
ssg1130
VBICYCLING
p1154
sg1123
(dp1155
g1109
F41.580827000000014
sg1110
F-71.492837800000004
ssg1133
(dp1156
g1103
Vegx|FfmjsLEBGD]Vc@`@MP[RMPEHIJMTQXWf@GLMVWn@u@dBa@fAM^O`@K^Qr@I`@Mt@Ad@E^E`@C\u005c
p1157
ssg1136
(dp1158
g1118
V2 mins
p1159
sg1120
I107
ssg1139
(dp1160
g1109
F41.583048400000003
sg1110
F-71.497166699999994
ssa(dp1161
g1116
(dp1162
g1118
V0.2 mi
p1163
sg1120
I274
ssg1130
VBICYCLING
p1164
sg1123
(dp1165
g1109
F41.583048400000003
sg1110
F-71.497166699999994
ssg1133
(dp1166
g1103
Vaux|FhhksLPFRHf@RjBfABBDBJH\u005ch@RHTBL?NADCNGJOBIl@qB
p1167
ssg1136
(dp1168
g1118
V2 mins
p1169
sg1120
I109
ssg1139
(dp1170
g1109
F41.581079199999998
sg1110
F-71.49731899999999
ssasg1136
(dp1171
g1118
V4 mins
p1172
sg1120
I253
ssg1139
(dp1173
g1109
F41.581079199999998
sg1110
F-71.49731899999999
ssassg56
g1102
sg57
I253
sg58
I849
sbsg59
F501.99023904135419
sba(iserver.dynamic_trips
Ride
p1174
(dp1175
g4
(F42.184799187400685
F-71.195453485605313
tp1176
sg6
g283
sg8
(iserver.routes
Route
p1177
(dp1178
g11
(dp1179
Voverview_polyline
p1180
(dp1181
Vpoints
p1182
Vw~n`GpdqqL`EfAF_@b@LjBf@hAgHt@DtAPtA`@pD_T
p1183
ssVbounds
p1184
(dp1185
Vnortheast
p1186
(dp1187
Vlat
p1188
F42.188763899999998
sVlng
p1189
F-71.195529899999997
ssVsouthwest
p1190
(dp1191
g1188
F42.184644300000002
sg1189
F-71.200080499999999
sssVlegs
p1192
(lp1193
(dp1194
Vdistance
p1195
(dp1196
Vtext
p1197
V0.5 mi
p1198
sVvalue
p1199
I761
ssVtraffic_speed_entry
p1200
(lp1201
sVstart_location
p1202
(dp1203
g1188
F42.188763899999998
sg1189
F-71.199610499999991
ssVsteps
p1204
(lp1205
(dp1206
g1195
(dp1207
g1197
V367 ft
p1208
sg1199
I112
ssVtravel_mode
p1209
VBICYCLING
p1210
sg1202
(dp1211
g1188
F42.188763899999998
sg1189
F-71.199610499999991
ssVpolyline
p1212
(dp1213
g1182
Vw~n`GpdqqL`EfA
p1214
ssVduration
p1215
(dp1216
g1197
V2 mins
p1217
sg1199
I102
ssVend_location
p1218
(dp1219
g1188
F42.187792100000003
sg1189
F-71.199970699999994
ssa(dp1220
g1195
(dp1221
g1197
V46 ft
p1222
sg1199
I14
ssg1209
VBICYCLING
p1223
sg1202
(dp1224
g1188
F42.187792100000003
sg1189
F-71.199970699999994
ssg1212
(dp1225
g1182
Vuxn`GxfqqLF_@
p1226
ssg1215
(dp1227
g1197
V1 min
p1228
sg1199
I13
ssg1218
(dp1229
g1188
F42.187750399999999
sg1189
F-71.199805299999994
ssa(dp1230
g1195
(dp1231
g1197
V236 ft
p1232
sg1199
I72
ssg1209
VBICYCLING
p1233
sg1202
(dp1234
g1188
F42.187750399999999
sg1189
F-71.199805299999994
ssg1212
(dp1235
g1182
Vmxn`GxeqqLF@ZJZH^JZH
p1236
ssg1215
(dp1237
g1197
V1 min
p1238
sg1199
I27
ssg1218
(dp1239
g1188
F42.187127099999998
sg1189
F-71.20004209999999
ssa(dp1240
g1195
(dp1241
g1197
V463 ft
p1242
sg1199
I141
ssg1209
VBICYCLING
p1243
sg1202
(dp1244
g1188
F42.187127099999998
sg1189
F-71.20004209999999
ssg1212
(dp1245
g1182
Vqtn`GfgqqLRFr@kET{A?A
p1246
ssg1215
(dp1247
g1197
V1 min
p1248
sg1199
I24
ssg1218
(dp1249
g1188
F42.186657199999999
sg1189
F-71.198586800000001
ssa(dp1250
g1195
(dp1251
g1197
V420 ft
p1252
sg1199
I128
ssg1209
VBICYCLING
p1253
sg1202
(dp1254
g1188
F42.186657199999999
sg1189
F-71.198586800000001
ssg1212
(dp1255
g1182
Vsqn`Gd~pqLt@FtAPtA`@
p1256
ssg1215
(dp1257
g1197
V1 min
p1258
sg1199
I19
ssg1218
(dp1259
g1188
F42.18553
sg1189
F-71.198886399999992
ssa(dp1260
g1195
(dp1261
g1197
V0.2 mi
p1262
sg1199
I294
ssg1209
VBICYCLING
p1263
sg1202
(dp1264
g1188
F42.18553
sg1189
F-71.198886399999992
ssg1212
(dp1265
g1182
Vqjn`G``qqLrB_M|@_F
p1266
ssg1215
(dp1267
g1197
V1 min
p1268
sg1199
I44
ssg1218
(dp1269
g1188
F42.184644300000002
sg1189
F-71.195529899999997
ssasg1215
(dp1270
g1197
V4 mins
p1271
sg1199
I229
ssg1218
(dp1272
g1188
F42.184644300000002
sg1189
F-71.195529899999997
ssassg56
g1181
sg57
I229
sg58
I761
sbsg59
F562.16031586812221
sba(iserver.dynamic_trips
Ride
p1273
(dp1274
g4
(F42.35216681872047
F-71.06164649902189
tp1275
sg6
g472
sg8
(iserver.routes
Route
p1276
(dp1277
g11
(dp1278
Voverview_polyline
p1279
(dp1280
Vpoints
p1281
VeznaG~xtpLP]e@c@DIlBaFQEu@fBoBdFu@`C]lAMl@G`@@NGRYt@o@|AU`BUz@MTPJRLBHBpBCrFw@hBv@p@`@^}@zBPJPDp@Dh@AbAED|@x@K
p1282
ssVbounds
p1283
(dp1284
Vnortheast
p1285
(dp1286
Vlat
p1287
F42.353600100000001
sVlng
p1288
F-71.052860299999992
ssVsouthwest
p1289
(dp1290
g1287
F42.351388499999999
sg1288
F-71.061711899999992
sssVlegs
p1291
(lp1292
(dp1293
Vdistance
p1294
(dp1295
Vtext
p1296
V0.7 mi
p1297
sVvalue
p1298
I1155
ssVtraffic_speed_entry
p1299
(lp1300
sVstart_location
p1301
(dp1302
g1287
F42.351870699999999
sg1288
F-71.054404599999998
ssVsteps
p1303
(lp1304
(dp1305
g1294
(dp1306
g1296
V138 ft
p1307
sg1298
I42
ssVtravel_mode
p1308
VBICYCLING
p1309
sg1301
(dp1310
g1287
F42.351870699999999
sg1288
F-71.054404599999998
ssVpolyline
p1311
(dp1312
g1281
VeznaG~xtpLBCLYe@c@
p1313
ssVduration
p1314
(dp1315
g1296
V1 min
p1316
sg1298
I8
ssVend_location
p1317
(dp1318
g1287
F42.351965499999999
sg1288
F-71.054065899999998
ssa(dp1319
g1294
(dp1320
g1296
V381 ft
p1321
sg1298
I116
ssg1308
VBICYCLING
p1322
sg1301
(dp1323
g1287
F42.351965499999999
sg1288
F-71.054065899999998
ssg1311
(dp1324
g1281
VyznaG|vtpLDI~AcEL]
p1325
ssg1314
(dp1326
g1296
V1 min
p1327
sg1298
I47
ssg1317
(dp1328
g1287
F42.351388499999999
sg1288
F-71.052886700000002
ssa(dp1329
g1294
(dp1330
g1296
V0.3 mi
p1331
sg1298
I479
ssg1308
VBICYCLING
p1332
sg1301
(dp1333
g1287
F42.351388499999999
sg1288
F-71.052886700000002
ssg1311
(dp1334
g1281
VewnaGpotpLQEu@fB{AzDSh@]jAWt@Qh@Kb@Kf@ADEP?DAB?D@NGRITO^ITO\u005cO\u005cEJGd@G`@AJCLAHENGTEJEHGJ
p1335
ssg1314
(dp1336
g1296
V3 mins
p1337
sg1298
I161
ssg1317
(dp1338
g1287
F42.353525500000003
sg1288
F-71.057788399999993
ssa(dp1339
g1294
(dp1340
g1296
V0.1 mi
p1341
sg1298
I228
ssg1308
VBICYCLING
p1342
sg1301
(dp1343
g1287
F42.353525500000003
sg1288
F-71.057788399999993
ssg1311
(dp1344
g1281
VqdoaGdnupLFDHDPH@B@D@B@Z@V?\u005c?^C|B?h@?f@?b@w@hB
p1345
ssg1314
(dp1346
g1296
V1 min
p1347
sg1298
I38
ssg1317
(dp1348
g1287
F42.353600100000001
sg1288
F-71.060285199999996
ssa(dp1349
g1294
(dp1350
g1296
V197 ft
p1351
sg1298
I60
ssg1308
VBICYCLING
p1352
sg1301
(dp1353
g1287
F42.353600100000001
sg1288
F-71.060285199999996
ssg1311
(dp1354
g1281
V_eoaGx}upLv@p@`@^
p1355
ssg1314
(dp1356
g1296
V1 min
p1357
sg1298
I11
ssg1317
(dp1358
g1287
F42.353150999999997
sg1288
F-71.060698399999993
ssa(dp1359
g1294
(dp1360
g1296
V200 ft
p1361
sg1298
I61
ssg1308
VBICYCLING
p1362
sg1301
(dp1363
g1287
F42.353150999999997
sg1288
F-71.060698399999993
ssg1311
(dp1364
g1281
VeboaGj`vpL}@zB
p1365
ssg1314
(dp1366
g1296
V1 min
p1367
sg1298
I11
ssg1317
(dp1368
g1287
F42.3534559
sg1288
F-71.061321800000002
ssa(dp1369
g1294
(dp1370
g1296
V361 ft
p1371
sg1298
I110
ssg1308
VBICYCLING
p1372
sg1301
(dp1373
g1287
F42.3534559
sg1288
F-71.061321800000002
ssg1311
(dp1374
g1281
VcdoaGfdvpLJFDBHBF@HBJ?F@R?TAR?bAE
p1375
ssg1314
(dp1376
g1296
V1 min
p1377
sg1298
I16
ssg1317
(dp1378
g1287
F42.352480999999997
sg1288
F-71.061398299999993
ssa(dp1379
g1294
(dp1380
g1296
V85 ft
p1381
sg1298
I26
ssg1308
VBICYCLING
p1382
sg1301
(dp1383
g1287
F42.352480999999997
sg1288
F-71.061398299999993
ssg1311
(dp1384
g1281
V_~naGvdvpLD|@
p1385
ssg1314
(dp1386
g1296
V1 min
p1387
sg1298
I64
ssg1317
(dp1388
g1287
F42.352451199999997
sg1288
F-71.061711899999992
ssa(dp1389
g1294
(dp1390
g1296
V108 ft
p1391
sg1298
I33
ssg1308
VBICYCLING
p1392
sg1301
(dp1393
g1287
F42.352451199999997
sg1288
F-71.061711899999992
ssg1311
(dp1394
g1281
Vy}naGtfvpLx@K
p1395
ssg1314
(dp1396
g1296
V1 min
p1397
sg1298
I42
ssg1317
(dp1398
g1287
F42.352161199999998
sg1288
F-71.061654300000001
ssasg1314
(dp1399
g1296
V7 mins
p1400
sg1298
I398
ssg1317
(dp1401
g1287
F42.352161199999998
sg1288
F-71.061654300000001
ssassg56
g1280
sg57
I398
sg58
I1155
sbsg59
F564.83496395893815
sba(iserver.dynamic_trips
Ride
p1402
(dp1403
g4
(F42.349296234094986
F-71.061255769248476
tp1404
sg6
g472
sg8
(iserver.routes
Route
p1405
(dp1406
g11
(dp1407
Voverview_polyline
p1408
(dp1409
Vpoints
p1410
VeznaG~xtpLP]e@c@DIlBaFQEu@fBoBdFu@`C]lAMl@G`@@NGRITDLHXFVhA~FNXFb@Xp@^l@^d@l@j@l@^tE|Ad@LMj@Or@pBj@dHtBXJ[~BqEsA
p1411
ssVbounds
p1412
(dp1413
Vnortheast
p1414
(dp1415
Vlat
p1416
F42.352920699999999
sVlng
p1417
F-71.052860299999992
ssVsouthwest
p1418
(dp1419
g1416
F42.3481217
sg1417
F-71.061750500000002
sssVlegs
p1420
(lp1421
(dp1422
Vdistance
p1423
(dp1424
Vtext
p1425
V0.9 mi
p1426
sVvalue
p1427
I1418
ssVtraffic_speed_entry
p1428
(lp1429
sVstart_location
p1430
(dp1431
g1416
F42.351870699999999
sg1417
F-71.054404599999998
ssVsteps
p1432
(lp1433
(dp1434
g1423
(dp1435
g1425
V138 ft
p1436
sg1427
I42
ssVtravel_mode
p1437
VBICYCLING
p1438
sg1430
(dp1439
g1416
F42.351870699999999
sg1417
F-71.054404599999998
ssVpolyline
p1440
(dp1441
g1410
VeznaG~xtpLBCLYe@c@
p1442
ssVduration
p1443
(dp1444
g1425
V1 min
p1445
sg1427
I8
ssVend_location
p1446
(dp1447
g1416
F42.351965499999999
sg1417
F-71.054065899999998
ssa(dp1448
g1423
(dp1449
g1425
V381 ft
p1450
sg1427
I116
ssg1437
VBICYCLING
p1451
sg1430
(dp1452
g1416
F42.351965499999999
sg1417
F-71.054065899999998
ssg1440
(dp1453
g1410
VyznaG|vtpLDI~AcEL]
p1454
ssg1443
(dp1455
g1425
V1 min
p1456
sg1427
I47
ssg1446
(dp1457
g1416
F42.351388499999999
sg1417
F-71.052886700000002
ssa(dp1458
g1423
(dp1459
g1425
V0.2 mi
p1460
sg1427
I335
ssg1437
VBICYCLING
p1461
sg1430
(dp1462
g1416
F42.351388499999999
sg1417
F-71.052886700000002
ssg1440
(dp1463
g1410
VewnaGpotpLQEu@fB{AzDSh@]jAWt@Qh@Kb@Kf@ADEP?DAB?D@NGRIT
p1464
ssg1443
(dp1465
g1425
V2 mins
p1466
sg1427
I113
ssg1446
(dp1467
g1416
F42.352920699999999
sg1417
F-71.056255100000001
ssa(dp1468
g1423
(dp1469
g1425
V0.3 mi
p1470
sg1427
I454
ssg1437
VBICYCLING
p1471
sg1430
(dp1472
g1416
F42.352920699999999
sg1417
F-71.056255100000001
ssg1440
(dp1473
g1410
Vw`oaGrdupLDLDLBJDJ@JDLX~A^rBH\u005cFPFFBRBNDLFLFJBH@BFJJPHJ@@FJJLHHJJJJJHHHLHHFJFHDJD^NNDxC`Ad@L
p1474
ssg1443
(dp1475
g1425
V2 mins
p1476
sg1427
I129
ssg1446
(dp1477
g1416
F42.350139200000001
sg1417
F-71.05976179999999
ssa(dp1478
g1423
(dp1479
g1425
V141 ft
p1480
sg1427
I43
ssg1437
VBICYCLING
p1481
sg1430
(dp1482
g1416
F42.350139200000001
sg1417
F-71.05976179999999
ssg1440
(dp1483
g1410
VkonaGnzupLMj@Or@
p1484
ssg1443
(dp1485
g1425
V1 min
p1486
sg1427
I20
ssg1446
(dp1487
g1416
F42.350286100000012
sg1417
F-71.060240800000003
ssa(dp1488
g1423
(dp1489
g1425
V0.2 mi
p1490
sg1427
I251
ssg1437
VBICYCLING
p1491
sg1430
(dp1492
g1416
F42.350286100000012
sg1417
F-71.060240800000003
ssg1440
(dp1493
g1410
VipnaGn}upLpBj@|Ad@fEnAXJ
p1494
ssg1443
(dp1495
g1425
V1 min
p1496
sg1427
I67
ssg1446
(dp1497
g1416
F42.3481217
sg1417
F-71.0611064
ssa(dp1498
g1423
(dp1499
g1425
V180 ft
p1500
sg1427
I55
ssg1437
VBICYCLING
p1501
sg1430
(dp1502
g1416
F42.3481217
sg1417
F-71.0611064
ssg1440
(dp1503
g1410
VwbnaG|bvpL[~B
p1504
ssg1443
(dp1505
g1425
V1 min
p1506
sg1427
I9
ssg1446
(dp1507
g1416
F42.348261600000001
sg1417
F-71.061750500000002
ssa(dp1508
g1423
(dp1509
g1425
V400 ft
p1510
sg1427
I122
ssg1437
VBICYCLING
p1511
sg1430
(dp1512
g1416
F42.348261600000001
sg1417
F-71.061750500000002
ssg1440
(dp1513
g1410
VscnaG|fvpLkDcAe@O
p1514
ssg1443
(dp1515
g1425
V1 min
p1516
sg1427
I20
ssg1446
(dp1517
g1416
F42.349312500000003
sg1417
F-71.061329599999993
ssasg1443
(dp1518
g1425
V7 mins
p1519
sg1427
I413
ssg1446
(dp1520
g1416
F42.349312500000003
sg1417
F-71.061329599999993
ssassg56
g1409
sg57
I413
sg58
I1418
sbsg59
F597.64802734732723
sba(iserver.dynamic_trips
Ride
p1521
(dp1522
g4
(F41.587421430717534
F-71.491772680162583
tp1523
sg6
g1008
sg8
(iserver.routes
Route
p1524
(dp1525
g11
(dp1526
Voverview_polyline
p1527
(dp1528
Vpoints
p1529
Vghx|FlfjsLi@zAPRZNRLJJDPGl@MHkB~Ak@|@_AfBmAtCo@fB[`A[tAMt@Ad@K`AGbACZGXCdA?dAaAMiAUsAIaBMk@SmFcC}@g@YUk@q@}CqEkAmBXc@v@w@ZO
p1530
ssVbounds
p1531
(dp1532
Vnortheast
p1533
(dp1534
Vlat
p1535
F41.588003499999999
sVlng
p1536
F-71.491751999999991
ssVsouthwest
p1537
(dp1538
g1535
F41.580785800000001
sg1536
F-71.498333700000003
sssVlegs
p1539
(lp1540
(dp1541
Vdistance
p1542
(dp1543
Vtext
p1544
V0.9 mi
p1545
sVvalue
p1546
I1374
ssVtraffic_speed_entry
p1547
(lp1548
sVstart_location
p1549
(dp1550
g1535
F41.580998600000008
sg1536
F-71.491751999999991
ssVsteps
p1551
(lp1552
(dp1553
g1542
(dp1554
g1544
V148 ft
p1555
sg1546
I45
ssVtravel_mode
p1556
VBICYCLING
p1557
sg1549
(dp1558
g1535
F41.580998600000008
sg1536
F-71.491751999999991
ssVpolyline
p1559
(dp1560
g1529
Vghx|FlfjsLGHa@pA
p1561
ssVduration
p1562
(dp1563
g1544
V1 min
p1564
sg1546
I21
ssVend_location
p1565
(dp1566
g1535
F41.581212299999997
sg1536
F-71.492211999999995
ssa(dp1567
g1542
(dp1568
g1544
V259 ft
p1569
sg1546
I79
ssg1556
VBICYCLING
p1570
sg1549
(dp1571
g1535
F41.581212299999997
sg1536
F-71.492211999999995
ssg1559
(dp1572
g1529
Vqix|FhijsLPRZNB@NJJJDP?RGX
p1573
ssg1562
(dp1574
g1544
V1 min
p1575
sg1546
I16
ssg1565
(dp1576
g1535
F41.580827000000014
sg1536
F-71.492837800000004
ssa(dp1577
g1542
(dp1578
g1544
V0.3 mi
p1579
sg1546
I549
ssg1556
VBICYCLING
p1580
sg1549
(dp1581
g1535
F41.580827000000014
sg1536
F-71.492837800000004
ssg1559
(dp1582
g1529
Vegx|FfmjsLEBGD]Vc@`@MP[RMPEHIJMTQXWf@GLMVWn@u@dBa@fAM^O`@K^Qr@I`@Mt@Ad@E^E`@C\u005cCd@CZGXCl@?VAT@n@
p1583
ssg1562
(dp1584
g1544
V3 mins
p1585
sg1546
I156
ssg1565
(dp1586
g1535
F41.583154499999999
sg1536
F-71.498333700000003
ssa(dp1587
g1542
(dp1588
g1544
V0.4 mi
p1589
sg1546
I624
ssg1556
VBICYCLING
p1590
sg1549
(dp1591
g1535
F41.583154499999999
sg1536
F-71.498333700000003
ssg1559
(dp1592
g1529
Vuux|FpoksLo@GQEiAUsAIkAGUEa@MIEYM{@_@qAo@eAe@i@[SKYUk@q@iBkCs@eAkAmB
p1593
ssg1562
(dp1594
g1544
V2 mins
p1595
sg1546
I135
ssg1565
(dp1596
g1535
F41.588003499999999
sg1536
F-71.4951078
ssa(dp1597
g1542
(dp1598
g1544
V253 ft
p1599
sg1546
I77
ssg1556
VBICYCLING
p1600
sg1549
(dp1601
g1535
F41.588003499999999
sg1536
F-71.4951078
ssg1559
(dp1602
g1529
V_ty|Fl{jsLXc@b@g@RONKJC
p1603
ssg1562
(dp1604
g1544
V1 min
p1605
sg1546
I17
ssg1565
(dp1606
g1535
F41.5874484
sg1536
F-71.494572199999993
ssasg1562
(dp1607
g1544
V6 mins
p1608
sg1546
I345
ssg1565
(dp1609
g1535
F41.5874484
sg1536
F-71.494572199999993
ssassg56
g1528
sg57
I345
sg58
I1374
sbsg59
F684.07064706073572
sba(iserver.dynamic_trips
Ride
p1610
(dp1611
g4
(F42.139854508599605
F-71.262285440527762
tp1612
sg6
g661
sg8
(iserver.routes
Route
p1613
(dp1614
g11
(dp1615
Voverview_polyline
p1616
(dp1617
Vpoints
p1618
Vepf`Gbp|qLXWVLR]\u005cSj@IdBG@X@r@@L@|AvAKrAE\u005c@Pf@DNVzBRlANb@hBbFx@lBt@l@pAp@HDh@Fh@@`@Cf@Oz@m@tAu@FzACfAOb@
p1619
ssVbounds
p1620
(dp1621
Vnortheast
p1622
(dp1623
Vlat
p1624
F42.145468399999999
sVlng
p1625
F-71.257391799999994
ssVsouthwest
p1626
(dp1627
g1624
F42.139657199999988
sg1625
F-71.262361599999991
sssVlegs
p1628
(lp1629
(dp1630
Vdistance
p1631
(dp1632
Vtext
p1633
V0.6 mi
p1634
sVvalue
p1635
I996
ssVtraffic_speed_entry
p1636
(lp1637
sVstart_location
p1638
(dp1639
g1624
F42.145468399999999
sg1625
F-71.257780999999994
ssVsteps
p1640
(lp1641
(dp1642
g1631
(dp1643
g1633
V56 ft
p1644
sg1635
I17
ssVtravel_mode
p1645
VBICYCLING
p1646
sg1638
(dp1647
g1624
F42.145468399999999
sg1625
F-71.257780999999994
ssVpolyline
p1648
(dp1649
g1618
Vepf`Gbp|qLXW
p1650
ssVduration
p1651
(dp1652
g1633
V1 min
p1653
sg1635
I3
ssVend_location
p1654
(dp1655
g1624
F42.145344399999999
sg1625
F-71.257660099999995
ssa(dp1656
g1631
(dp1657
g1633
V49 ft
p1658
sg1635
I15
ssg1645
VBICYCLING
p1659
sg1638
(dp1660
g1624
F42.145344399999999
sg1625
F-71.257660099999995
ssg1648
(dp1661
g1618
Vkof`Gjo|qLDDPF
p1662
ssg1651
(dp1663
g1633
V1 min
p1664
sg1635
I3
ssg1654
(dp1665
g1624
F42.145221199999988
sg1625
F-71.257731899999996
ssa(dp1666
g1631
(dp1667
g1633
V384 ft
p1668
sg1635
I117
ssg1645
VBICYCLING
p1669
sg1638
(dp1670
g1624
F42.145221199999988
sg1625
F-71.257731899999996
ssg1648
(dp1671
g1618
Vsnf`Gxo|qLN[BANMLERGVAdBG
p1672
ssg1651
(dp1673
g1633
V1 min
p1674
sg1635
I16
ssg1654
(dp1675
g1624
F42.144239800000001
sg1625
F-71.257391799999994
ssa(dp1676
g1631
(dp1677
g1633
V253 ft
p1678
sg1635
I77
ssg1645
VBICYCLING
p1679
sg1638
(dp1680
g1624
F42.144239800000001
sg1625
F-71.257391799999994
ssg1648
(dp1681
g1618
Vohf`Gtm|qL@X@j@?F@F?D@|A
p1682
ssg1651
(dp1683
g1633
V1 min
p1684
sg1635
I19
ssg1654
(dp1685
g1624
F42.144199999999998
sg1625
F-71.258319999999998
ssa(dp1686
g1631
(dp1687
g1633
V371 ft
p1688
sg1635
I113
ssg1645
VBICYCLING
p1689
sg1638
(dp1690
g1624
F42.144199999999998
sg1625
F-71.258319999999998
ssg1648
(dp1691
g1618
Vghf`Gns|qLvAKr@E^?\u005c@
p1692
ssg1651
(dp1693
g1633
V1 min
p1694
sg1635
I27
ssg1654
(dp1695
g1624
F42.143189999999997
sg1625
F-71.258240000000001
ssa(dp1696
g1631
(dp1697
g1633
V0.2 mi
p1698
sg1635
I256
ssg1645
VBICYCLING
p1699
sg1638
(dp1700
g1624
F42.143189999999997
sg1625
F-71.258240000000001
ssg1648
(dp1701
g1618
V}af`G~r|qLPf@@HBDFX@NHr@B\u005cD^Ll@DLHTL^JXJ\u005cbAjCLX
p1702
ssg1651
(dp1703
g1633
V1 min
p1704
sg1635
I50
ssg1654
(dp1705
g1624
F42.142167299999997
sg1625
F-71.260984399999998
ssa(dp1706
g1631
(dp1707
g1633
V0.1 mi
p1708
sg1635
I181
ssg1645
VBICYCLING
p1709
sg1638
(dp1710
g1624
F42.142167299999997
sg1625
F-71.260984399999998
ssg1648
(dp1711
g1618
Vq{e`Gbd}qLj@rA\u005cZVPbAh@LFHDh@FX@N?
p1712
ssg1651
(dp1713
g1633
V1 min
p1714
sg1635
I32
ssg1654
(dp1715
g1624
F42.140799999999999
sg1625
F-71.261960000000016
ssa(dp1716
g1631
(dp1717
g1633
V440 ft
p1718
sg1635
I134
ssg1645
VBICYCLING
p1719
sg1638
(dp1720
g1624
F42.140799999999999
sg1625
F-71.261960000000016
ssg1648
(dp1721
g1618
V_se`Gfj}qLL?RCf@Oz@m@tAu@
p1722
ssg1651
(dp1723
g1633
V1 min
p1724
sg1635
I24
ssg1654
(dp1725
g1624
F42.139696000000001
sg1625
F-71.261358000000001
ssa(dp1726
g1631
(dp1727
g1633
V223 ft
p1728
sg1635
I68
ssg1645
VBICYCLING
p1729
sg1638
(dp1730
g1624
F42.139696000000001
sg1625
F-71.261358000000001
ssg1648
(dp1731
g1618
Vcle`Gnf}qLFzA?f@C^
p1732
ssg1651
(dp1733
g1633
V1 min
p1734
sg1635
I13
ssg1654
(dp1735
g1624
F42.139679999999998
sg1625
F-71.262180000000001
ssa(dp1736
g1631
(dp1737
g1633
V59 ft
p1738
sg1635
I18
ssg1645
VBICYCLING
p1739
sg1638
(dp1740
g1624
F42.139679999999998
sg1625
F-71.262180000000001
ssg1648
(dp1741
g1618
V_le`Grk}qLOb@
p1742
ssg1651
(dp1743
g1633
V1 min
p1744
sg1635
I3
ssg1654
(dp1745
g1624
F42.139763899999998
sg1625
F-71.262361599999991
ssasg1651
(dp1746
g1633
V3 mins
p1747
sg1635
I190
ssg1654
(dp1748
g1624
F42.139763899999998
sg1625
F-71.262361599999991
ssassg56
g1617
sg57
I190
sg58
I996
sbsg59
F727.00676313226222
sba(iserver.dynamic_trips
Ride
p1749
(dp1750
g4
(F42.150913210079416
F-71.252527530443672
tp1751
sg6
g661
sg8
(iserver.routes
Route
p1752
(dp1753
g11
(dp1754
Voverview_polyline
p1755
(dp1756
Vpoints
p1757
Vepf`Gbp|qLaBkDGWCQcAaCGOy@|@m@h@uAz@{Az@y@j@uAlAU[mDeDu@o@oAyAgAcBk@y@oBqCm@s@MI
p1758
ssVbounds
p1759
(dp1760
Vnortheast
p1761
(dp1762
Vlat
p1763
F42.151621400000003
sVlng
p1764
F-71.254217400000002
ssVsouthwest
p1765
(dp1766
g1763
F42.145468399999999
sg1764
F-71.257780999999994
sssVlegs
p1767
(lp1768
(dp1769
Vdistance
p1770
(dp1771
Vtext
p1772
V0.6 mi
p1773
sVvalue
p1774
I908
ssVtraffic_speed_entry
p1775
(lp1776
sVstart_location
p1777
(dp1778
g1763
F42.145468399999999
sg1764
F-71.257780999999994
ssVsteps
p1779
(lp1780
(dp1781
g1770
(dp1782
g1772
V0.1 mi
p1783
sg1774
I181
ssVtravel_mode
p1784
VBICYCLING
p1785
sg1777
(dp1786
g1763
F42.145468399999999
sg1764
F-71.257780999999994
ssVpolyline
p1787
(dp1788
g1757
Vepf`Gbp|qLaBkDGWCQcAaCGO
p1789
ssVduration
p1790
(dp1791
g1772
V1 min
p1792
sg1774
I25
ssVend_location
p1793
(dp1794
g1763
F42.1464
sg1764
F-71.255983700000002
ssa(dp1795
g1770
(dp1796
g1772
V0.2 mi
p1797
sg1774
I277
ssg1784
VBICYCLING
p1798
sg1777
(dp1799
g1763
F42.1464
sg1764
F-71.255983700000002
ssg1787
(dp1800
g1757
V_vf`Gzd|qLy@|@SRYTo@b@e@V}@f@]Rc@XUPq@h@c@b@
p1801
ssg1790
(dp1802
g1772
V2 mins
p1803
sg1774
I134
ssg1793
(dp1804
g1763
F42.148530000000001
sg1764
F-71.257710000000003
ssa(dp1805
g1770
(dp1806
g1772
V0.3 mi
p1807
sg1774
I450
ssg1784
VBICYCLING
p1808
sg1777
(dp1809
g1763
F42.148530000000001
sg1764
F-71.257710000000003
ssg1787
(dp1810
g1757
Vicg`Gto|qLIMKM_@_@mCeCi@g@KGoAyAgAcBQSYe@SW{AyBU[WWMI
p1811
ssg1790
(dp1812
g1772
V2 mins
p1813
sg1774
I110
ssg1793
(dp1814
g1763
F42.151621400000003
sg1764
F-71.254217400000002
ssasg1790
(dp1815
g1772
V4 mins
p1816
sg1774
I269
ssg1793
(dp1817
g1763
F42.151621400000003
sg1764
F-71.254217400000002
ssassg56
g1756
sg57
I269
sg58
I908
sbsg59
F744.26324616301895
sba(iserver.dynamic_trips
Ride
p1818
(dp1819
g4
(F42.346471727161067
F-71.048649021715065
tp1820
sg6
g472
sg8
(iserver.routes
Route
p1821
(dp1822
g11
(dp1823
Voverview_polyline
p1824
(dp1825
Vpoints
p1826
VeznaG~xtpLP]e@c@DIlBaFvCcITq@D@HB^@TExAaC`CuDe@]rBaGL]pDlCZR`@Px@Fd@Ep@Q`@Y
p1827
ssVbounds
p1828
(dp1829
Vnortheast
p1830
(dp1831
Vlat
p1832
F42.351965499999999
sVlng
p1833
F-71.047877299999996
ssVsouthwest
p1834
(dp1835
g1832
F42.346512699999998
sg1833
F-71.054404599999998
sssVlegs
p1836
(lp1837
(dp1838
Vdistance
p1839
(dp1840
Vtext
p1841
V0.6 mi
p1842
sVvalue
p1843
I978
ssVtraffic_speed_entry
p1844
(lp1845
sVstart_location
p1846
(dp1847
g1832
F42.351870699999999
sg1833
F-71.054404599999998
ssVsteps
p1848
(lp1849
(dp1850
g1839
(dp1851
g1841
V138 ft
p1852
sg1843
I42
ssVtravel_mode
p1853
VBICYCLING
p1854
sg1846
(dp1855
g1832
F42.351870699999999
sg1833
F-71.054404599999998
ssVpolyline
p1856
(dp1857
g1826
VeznaG~xtpLBCLYe@c@
p1858
ssVduration
p1859
(dp1860
g1841
V1 min
p1861
sg1843
I8
ssVend_location
p1862
(dp1863
g1832
F42.351965499999999
sg1833
F-71.054065899999998
ssa(dp1864
g1839
(dp1865
g1841
V0.2 mi
p1866
sg1843
I298
ssg1853
VBICYCLING
p1867
sg1846
(dp1868
g1832
F42.351965499999999
sg1833
F-71.054065899999998
ssg1856
(dp1869
g1826
VyznaG|vtpLDI~AcEL]h@wAlBkFTq@
p1870
ssg1859
(dp1871
g1841
V2 mins
p1872
sg1843
I97
ssg1862
(dp1873
g1832
F42.350517699999997
sg1833
F-71.05102149999999
ssa(dp1874
g1839
(dp1875
g1841
V0.1 mi
p1876
sg1843
I217
ssg1853
VBICYCLING
p1877
sg1846
(dp1878
g1832
F42.350517699999997
sg1833
F-71.05102149999999
ssg1856
(dp1879
g1826
VwqnaGzctpLD@D@B@D?B@N?D?B?DADADADErA{B`CuD
p1880
ssg1859
(dp1881
g1841
V1 min
p1882
sg1843
I30
ssg1862
(dp1883
g1832
F42.3490678
sg1833
F-71.049473800000001
ssa(dp1884
g1839
(dp1885
g1841
V82 ft
p1886
sg1843
I25
ssg1853
VBICYCLING
p1887
sg1846
(dp1888
g1832
F42.3490678
sg1833
F-71.049473800000001
ssg1856
(dp1889
g1826
VuhnaGdzspLe@]
p1890
ssg1859
(dp1891
g1841
V1 min
p1892
sg1843
I36
ssg1862
(dp1893
g1832
F42.349261599999998
sg1833
F-71.049320899999998
ssa(dp1894
g1839
(dp1895
g1841
V456 ft
p1896
sg1843
I139
ssg1853
VBICYCLING
p1897
sg1846
(dp1898
g1832
F42.349261599999998
sg1833
F-71.049320899999998
ssg1856
(dp1899
g1826
V{inaGfyspLnBsFBMDIFS
p1900
ssg1859
(dp1901
g1841
V1 min
p1902
sg1843
I25
ssg1862
(dp1903
g1832
F42.348613200000003
sg1833
F-71.047877299999996
ssa(dp1904
g1839
(dp1905
g1841
V0.2 mi
p1906
sg1843
I257
ssg1853
VBICYCLING
p1907
sg1846
(dp1908
g1832
F42.348613200000003
sg1833
F-71.047877299999996
ssg1856
(dp1909
g1826
VyenaGfpspL^Z`Ap@~@r@NJHHPHVLHBJ@LBX@D?F?HAH?HCFAHAHCTIHEFEJGBE
p1910
ssg1859
(dp1911
g1841
V1 min
p1912
sg1843
I71
ssg1862
(dp1913
g1832
F42.346512699999998
sg1833
F-71.048574399999993
ssasg1859
(dp1914
g1841
V4 mins
p1915
sg1843
I267
ssg1862
(dp1916
g1832
F42.346512699999998
sg1833
F-71.048574399999993
ssassg56
g1825
sg57
I267
sg58
I978
sbsg59
F775.72848430453439
sba(iserver.dynamic_trips
Ride
p1917
(dp1918
g4
(F42.084164576637768
F-71.433210696245581
tp1919
sg6
g63
sg8
(iserver.routes
Route
p1920
(dp1921
g11
(dp1922
Voverview_polyline
p1923
(dp1924
Vpoints
p1925
Vcu{_Gz|_sLA[XE?]FGRBdARBJ`@pHAZKb@K^d@RVZzBuAc@_Bc@sBc@wCMcASmCC]\u005cAj@E`@I`@OPId@i@Xk@ZoATgAd@iA`@g@h@e@ROXMbB_@dACl@A~@L@kADoED]T_AVa@`@CTFLJDJ@ARSRu@
p1926
ssVbounds
p1927
(dp1928
Vnortheast
p1929
(dp1930
Vlat
p1931
F42.089954499999997
sVlng
p1932
F-71.432904199999996
ssVsouthwest
p1933
(dp1934
g1931
F42.084605699999997
sg1932
F-71.441094199999995
sssVlegs
p1935
(lp1936
(dp1937
Vdistance
p1938
(dp1939
Vtext
p1940
V0.9 mi
p1941
sVvalue
p1942
I1406
ssVtraffic_speed_entry
p1943
(lp1944
sVstart_location
p1945
(dp1946
g1931
F42.089937800000001
sg1932
F-71.439019299999998
ssVsteps
p1947
(lp1948
(dp1949
g1938
(dp1950
g1940
V39 ft
p1951
sg1942
I12
ssVtravel_mode
p1952
VBICYCLING
p1953
sg1945
(dp1954
g1931
F42.089937800000001
sg1932
F-71.439019299999998
ssVpolyline
p1955
(dp1956
g1925
Vcu{_Gz|_sLA[
p1957
ssVduration
p1958
(dp1959
g1940
V1 min
p1960
sg1942
I11
ssVend_location
p1961
(dp1962
g1931
F42.089954499999997
sg1932
F-71.438877699999992
ssa(dp1963
g1938
(dp1964
g1940
V49 ft
p1965
sg1942
I15
ssg1952
VBICYCLING
p1966
sg1945
(dp1967
g1931
F42.089954499999997
sg1932
F-71.438877699999992
ssg1955
(dp1968
g1925
Veu{_G~{_sLXE
p1969
ssg1958
(dp1970
g1940
V1 min
p1971
sg1942
I14
ssg1961
(dp1972
g1931
F42.089818600000001
sg1932
F-71.438849899999994
ssa(dp1973
g1938
(dp1974
g1940
V0.2 mi
p1975
sg1942
I246
ssg1952
VBICYCLING
p1976
sg1945
(dp1977
g1931
F42.089818600000001
sg1932
F-71.438849899999994
ssg1955
(dp1978
g1925
Vkt{_Gx{_sLAW@E@EDAD?LBb@H`@H@D@D^jG@d@?NAJAJIVK^
p1979
ssg1958
(dp1980
g1940
V1 min
p1981
sg1942
I77
ssg1961
(dp1982
g1931
F42.089266599999988
sg1932
F-71.440849200000002
ssa(dp1983
g1938
(dp1984
g1940
V387 ft
p1985
sg1942
I118
ssg1952
VBICYCLING
p1986
sg1945
(dp1987
g1931
F42.089266599999988
sg1932
F-71.440849200000002
ssg1955
(dp1988
g1925
V}p{_Ghh`sLd@RHDLT~A_AZU
p1989
ssg1958
(dp1990
g1940
V1 min
p1991
sg1942
I20
ssg1961
(dp1992
g1931
F42.088343700000003
sg1932
F-71.440656699999991
ssa(dp1993
g1938
(dp1994
g1940
V0.2 mi
p1995
sg1942
I263
ssg1952
VBICYCLING
p1996
sg1945
(dp1997
g1931
F42.088343700000003
sg1932
F-71.440656699999991
ssg1955
(dp1998
g1925
Vck{_Gbg`sLIWYgA[sAG_@YeBIq@Gg@E[KoAG}@C]
p1999
ssg1958
(dp2000
g1940
V2 mins
p2001
sg1942
I116
ssg1961
(dp2002
g1931
F42.089068599999997
sg1932
F-71.437638499999991
ssa(dp2003
g1938
(dp2004
g1940
V0.3 mi
p2005
sg1942
I487
ssg1952
VBICYCLING
p2006
sg1945
(dp2007
g1931
F42.089068599999997
sg1932
F-71.437638499999991
ssg1955
(dp2008
g1925
Vuo{_Gft_sL\u005cAN?ZE`@I`@OBALGRSPULQJYFURy@@ERaAVo@LY`@g@h@e@ROHGNEVGjAW`@Cb@?l@A~@L
p2009
ssg1958
(dp2010
g1940
V4 mins
p2011
sg1942
I213
ssg1961
(dp2012
g1931
F42.085502699999999
sg1932
F-71.435198299999996
ssa(dp2013
g1938
(dp2014
g1940
V0.1 mi
p2015
sg1942
I225
ssg1952
VBICYCLING
p2016
sg1945
(dp2017
g1931
F42.085502699999999
sg1932
F-71.435198299999996
ssg1955
(dp2018
g1925
Vkyz_G~d_sL@[?o@?ADmED]T_AHSLMNCP?TFLJDJ
p2019
ssg1958
(dp2020
g1940
V1 min
p2021
sg1942
I44
ssg1961
(dp2022
g1931
F42.084819499999988
sg1932
F-71.4332761
ssa(dp2023
g1938
(dp2024
g1940
V131 ft
p2025
sg1942
I40
ssg1952
VBICYCLING
p2026
sg1945
(dp2027
g1931
F42.084819499999988
sg1932
F-71.4332761
ssg1955
(dp2028
g1925
Vcuz_G~x~rL@AHGHKRu@
p2029
ssg1958
(dp2030
g1940
V1 min
p2031
sg1942
I7
ssg1961
(dp2032
g1931
F42.084605699999997
sg1932
F-71.432904199999996
ssasg1958
(dp2033
g1940
V8 mins
p2034
sg1942
I502
ssg1961
(dp2035
g1931
F42.084605699999997
sg1932
F-71.432904199999996
ssassg56
g1924
sg57
I502
sg58
I1406
sbsg59
F801.70819461290171
sba(iserver.dynamic_trips
Ride
p2036
(dp2037
g4
(F42.254266481812088
F-71.795907862195293
tp2038
sg6
g7
sg8
(iserver.routes
Route
p2039
(dp2040
g11
(dp2041
Voverview_polyline
p2042
(dp2043
Vpoints
p2044
Vme}`G|leuLHo@@YCSKSR]HIj@[^Oz@SpAKHZFb@Fx@@xCEfAnEg@`Dc@\u005c?THTPjA~@fEzDpCwGDI`@cAZw@nBfBdAhAXT^?DDBJApA
p2045
ssVbounds
p2046
(dp2047
Vnortheast
p2048
(dp2049
Vlat
p2050
F42.2615251
sVlng
p2051
F-71.793722299999999
ssVsouthwest
p2052
(dp2053
g2050
F42.254259900000001
sg2051
F-71.796475999999998
sssVlegs
p2054
(lp2055
(dp2056
Vdistance
p2057
(dp2058
Vtext
p2059
V0.7 mi
p2060
sVvalue
p2061
I1192
ssVtraffic_speed_entry
p2062
(lp2063
sVstart_location
p2064
(dp2065
g2050
F42.261511800000001
sg2051
F-71.794868199999996
ssVsteps
p2066
(lp2067
(dp2068
g2057
(dp2069
g2059
V164 ft
p2070
sg2061
I50
ssVtravel_mode
p2071
VBICYCLING
p2072
sg2064
(dp2073
g2050
F42.261511800000001
sg2051
F-71.794868199999996
ssVpolyline
p2074
(dp2075
g2044
Vme}`G|leuLD]BQ@M?KAKAGEKEG
p2076
ssVduration
p2077
(dp2078
g2059
V1 min
p2079
sg2061
I13
ssVend_location
p2080
(dp2081
g2050
F42.2615251
sg2051
F-71.794296599999996
ssa(dp2082
g2057
(dp2083
g2059
V489 ft
p2084
sg2061
I149
ssg2071
VBICYCLING
p2085
sg2064
(dp2086
g2050
F42.2615251
sg2051
F-71.794296599999996
ssg2074
(dp2087
g2044
Vqe}`GjieuLN[BABADGf@YBAFEVIx@Q@ATCz@G
p2088
ssg2077
(dp2089
g2059
V1 min
p2090
sg2061
I53
ssg2080
(dp2091
g2050
F42.260291100000003
sg2051
F-71.793722299999999
ssa(dp2092
g2057
(dp2093
g2059
V476 ft
p2094
sg2061
I145
ssg2071
VBICYCLING
p2095
sg2064
(dp2096
g2050
F42.260291100000003
sg2051
F-71.793722299999999
ssg2074
(dp2097
g2044
Vy}|`GveeuLDLBLBNBRBXB^@p@?fBA\u005cCh@
p2098
ssg2077
(dp2099
g2059
V1 min
p2100
sg2061
I19
ssg2080
(dp2101
g2050
F42.260183699999999
sg2051
F-71.795455799999999
ssa(dp2102
g2057
(dp2103
g2059
V0.3 mi
p2104
sg2061
I437
ssg2071
VBICYCLING
p2105
sg2064
(dp2106
g2050
F42.260183699999999
sg2051
F-71.795455799999999
ssg2074
(dp2107
g2044
Vc}|`GrpeuLfC[fAKjB[t@GRAH@HBJDHFJHPJx@r@|AzAhB~A
p2108
ssg2077
(dp2109
g2059
V2 mins
p2110
sg2061
I130
ssg2080
(dp2111
g2050
F42.256585000000001
sg2051
F-71.796475999999998
ssa(dp2112
g2057
(dp2113
g2059
V0.1 mi
p2114
sg2061
I208
ssg2071
VBICYCLING
p2115
sg2064
(dp2116
g2050
F42.256585000000001
sg2051
F-71.796475999999998
ssg2074
(dp2117
g2044
Vsf|`G~veuLj@sAz@qBVm@Pc@@C@A@CVm@HUZw@
p2118
ssg2077
(dp2119
g2059
V3 mins
p2120
sg2061
I200
ssg2080
(dp2121
g2050
F42.255512499999988
sg2051
F-71.794411499999995
ssa(dp2122
g2057
(dp2123
g2059
V0.1 mi
p2124
sg2061
I154
ssg2071
VBICYCLING
p2125
sg2064
(dp2126
g2050
F42.255512499999988
sg2051
F-71.794411499999995
ssg2074
(dp2127
g2044
V}_|`G`jeuLnBfBdAhAXTT?
p2128
ssg2077
(dp2129
g2059
V1 min
p2130
sg2061
I24
ssg2080
(dp2131
g2050
F42.254362899999997
sg2051
F-71.795405700000003
ssa(dp2132
g2057
(dp2133
g2059
V161 ft
p2134
sg2061
I49
ssg2071
VBICYCLING
p2135
sg2064
(dp2136
g2050
F42.254362899999997
sg2051
F-71.795405700000003
ssg2074
(dp2137
g2044
Vwx{`GhpeuLH?DDBJApA
p2138
ssg2077
(dp2139
g2059
V1 min
p2140
sg2061
I7
ssg2080
(dp2141
g2050
F42.254266800000003
sg2051
F-71.795907999999997
ssasg2077
(dp2142
g2059
V7 mins
p2143
sg2061
I446
ssg2080
(dp2144
g2050
F42.254266800000003
sg2051
F-71.795907999999997
ssassg56
g2043
sg57
I446
sg58
I1192
sbsg59
F804.6114903640522
sba(iserver.dynamic_trips
Ride
p2145
(dp2146
g4
(F42.082870336365275
F-71.433650457527023
tp2147
sg6
g63
sg8
(iserver.routes
Route
p2148
(dp2149
g11
(dp2150
Voverview_polyline
p2151
(dp2152
Vpoints
p2153
Vcu{_Gz|_sLA[XE?]FGRBdARBJ`@pHAZKb@K^d@RVZzBuAc@_Bc@sBc@wCMcASmCC]\u005cAj@E`@I`@OPId@i@Xk@ZoATgAd@iA`@g@h@e@ROXMbB_@dACl@A~@LNBl@JvAn@jBxAx@mCdB{Ez@kC
p2154
ssVbounds
p2155
(dp2156
Vnortheast
p2157
(dp2158
Vlat
p2159
F42.089954499999997
sVlng
p2160
F-71.433463500000002
ssVsouthwest
p2161
(dp2162
g2159
F42.083109
sg2160
F-71.441094199999995
sssVlegs
p2163
(lp2164
(dp2165
Vdistance
p2166
(dp2167
Vtext
p2168
V1.0 mi
p2169
sVvalue
p2170
I1540
ssVtraffic_speed_entry
p2171
(lp2172
sVstart_location
p2173
(dp2174
g2159
F42.089937800000001
sg2160
F-71.439019299999998
ssVsteps
p2175
(lp2176
(dp2177
g2166
(dp2178
g2168
V39 ft
p2179
sg2170
I12
ssVtravel_mode
p2180
VBICYCLING
p2181
sg2173
(dp2182
g2159
F42.089937800000001
sg2160
F-71.439019299999998
ssVpolyline
p2183
(dp2184
g2153
Vcu{_Gz|_sLA[
p2185
ssVduration
p2186
(dp2187
g2168
V1 min
p2188
sg2170
I11
ssVend_location
p2189
(dp2190
g2159
F42.089954499999997
sg2160
F-71.438877699999992
ssa(dp2191
g2166
(dp2192
g2168
V49 ft
p2193
sg2170
I15
ssg2180
VBICYCLING
p2194
sg2173
(dp2195
g2159
F42.089954499999997
sg2160
F-71.438877699999992
ssg2183
(dp2196
g2153
Veu{_G~{_sLXE
p2197
ssg2186
(dp2198
g2168
V1 min
p2199
sg2170
I14
ssg2189
(dp2200
g2159
F42.089818600000001
sg2160
F-71.438849899999994
ssa(dp2201
g2166
(dp2202
g2168
V0.2 mi
p2203
sg2170
I246
ssg2180
VBICYCLING
p2204
sg2173
(dp2205
g2159
F42.089818600000001
sg2160
F-71.438849899999994
ssg2183
(dp2206
g2153
Vkt{_Gx{_sLAW@E@EDAD?LBb@H`@H@D@D^jG@d@?NAJAJIVK^
p2207
ssg2186
(dp2208
g2168
V1 min
p2209
sg2170
I77
ssg2189
(dp2210
g2159
F42.089266599999988
sg2160
F-71.440849200000002
ssa(dp2211
g2166
(dp2212
g2168
V387 ft
p2213
sg2170
I118
ssg2180
VBICYCLING
p2214
sg2173
(dp2215
g2159
F42.089266599999988
sg2160
F-71.440849200000002
ssg2183
(dp2216
g2153
V}p{_Ghh`sLd@RHDLT~A_AZU
p2217
ssg2186
(dp2218
g2168
V1 min
p2219
sg2170
I20
ssg2189
(dp2220
g2159
F42.088343700000003
sg2160
F-71.440656699999991
ssa(dp2221
g2166
(dp2222
g2168
V0.2 mi
p2223
sg2170
I263
ssg2180
VBICYCLING
p2224
sg2173
(dp2225
g2159
F42.088343700000003
sg2160
F-71.440656699999991
ssg2183
(dp2226
g2153
Vck{_Gbg`sLIWYgA[sAG_@YeBIq@Gg@E[KoAG}@C]
p2227
ssg2186
(dp2228
g2168
V2 mins
p2229
sg2170
I116
ssg2189
(dp2230
g2159
F42.089068599999997
sg2160
F-71.437638499999991
ssa(dp2231
g2166
(dp2232
g2168
V0.4 mi
p2233
sg2170
I645
ssg2180
VBICYCLING
p2234
sg2173
(dp2235
g2159
F42.089068599999997
sg2160
F-71.437638499999991
ssg2183
(dp2236
g2153
Vuo{_Gft_sL\u005cAN?ZE`@I`@OBALGRSPULQJYFURy@@ERaAVo@LY`@g@h@e@ROHGNEVGjAW`@Cb@?l@A~@LD@H@l@JvAn@vAdARR
p2237
ssg2186
(dp2238
g2168
V4 mins
p2239
sg2170
I241
ssg2189
(dp2240
g2159
F42.084213899999988
sg2160
F-71.435968399999993
ssa(dp2241
g2166
(dp2242
g2168
V0.1 mi
p2243
sg2170
I241
ssg2180
VBICYCLING
p2244
sg2173
(dp2245
g2159
F42.084213899999988
sg2160
F-71.435968399999993
ssg2183
(dp2246
g2153
Viqz_Gxi_sLFWp@uBFMd@uAf@yAN]L_@l@kB
p2247
ssg2186
(dp2248
g2168
V1 min
p2249
sg2170
I74
ssg2189
(dp2250
g2159
F42.083109
sg2160
F-71.433463500000002
ssasg2186
(dp2251
g2168
V9 mins
p2252
sg2170
I553
ssg2189
(dp2253
g2159
F42.083109
sg2160
F-71.433463500000002
ssassg56
g2152
sg57
I553
sg58
I1540
sbsg59
F902.74280690478736
sba.